
pico-bootrom-b2.elf:     file format elf32-littlearm


Disassembly of section .text:

00000000 <__vectors>:
       0:	20041f00 	andcs	r1, r4, r0, lsl #30
       4:	000000eb 	andeq	r0, r0, fp, ror #1
       8:	00000035 	andeq	r0, r0, r5, lsr r0
       c:	00000031 	andeq	r0, r0, r1, lsr r0

00000010 <_magic>:
      10:	0301754d 	movweq	r7, #5453	; 0x154d

00000014 <_well_known>:
      14:	00c4007a 	sbceq	r0, r4, sl, ror r0
      18:	0000001d 	andeq	r0, r0, sp, lsl r0

0000001c <table_lookup>:
      1c:	2300      	movs	r3, #0
      1e:	8802      	ldrh	r2, [r0, #0]
      20:	429a      	cmp	r2, r3
      22:	d003      	beq.n	2c <table_lookup+0x10>
      24:	8843      	ldrh	r3, [r0, #2]
      26:	3004      	adds	r0, #4
      28:	4291      	cmp	r1, r2
      2a:	d1f7      	bne.n	1c <table_lookup>
      2c:	1c18      	adds	r0, r3, #0
      2e:	4770      	bx	lr

00000030 <_dead>:
      30:	bf30      	wfi
      32:	e7fd      	b.n	30 <_dead>

00000034 <_nmi>:
      34:	46f4      	mov	ip, lr
      36:	f000 f805 	bl	44 <enable_clocks>
      3a:	48a7      	ldr	r0, [pc, #668]	; (2d8 <_+0x2>)
      3c:	2100      	movs	r1, #0
      3e:	6001      	str	r1, [r0, #0]
      40:	6041      	str	r1, [r0, #4]
      42:	46e7      	mov	pc, ip

00000044 <enable_clocks>:
      44:	48a5      	ldr	r0, [pc, #660]	; (2dc <_+0x6>)
      46:	2100      	movs	r1, #0
      48:	43c9      	mvns	r1, r1
      4a:	6001      	str	r1, [r0, #0]
      4c:	6041      	str	r1, [r0, #4]

0000004e <_noop>:
      4e:	4770      	bx	lr

00000050 <software_git_revision>:
      50:	24783652 	ldrbtcs	r3, [r8], #-1618	; 0xfffff9ae

00000054 <__irq5_vector>:
      54:	00001df9 	strdeq	r1, [r0], -r9

00000058 <copyright>:
      58:	20294328 	eorcs	r4, r9, r8, lsr #6
      5c:	30323032 	eorscc	r3, r2, r2, lsr r0
      60:	73615220 	cmnvc	r1, #32, 4
      64:	72656270 	rsbvc	r6, r5, #112, 4
      68:	50207972 	eorpl	r7, r0, r2, ror r9
      6c:	72542069 	subsvc	r2, r4, #105	; 0x69
      70:	6e696461 	cdpvs	4, 6, cr6, cr9, cr1, {3}
      74:	744c2067 	strbvc	r2, [ip], #-103	; 0xffffff99
      78:	 	cmpcc	r0, #100	; 0x64

0000007a <function_table>:
      7a:	03093350 	movweq	r3, #37712	; 0x9350
      7e:	032d3352 			; <UNDEFINED> instruction: 0x032d3352
      82:	0357334c 	cmpeq	r7, #76, 6	; 0x30000001
      86:	038f3354 	orreq	r3, pc, #84, 6	; 0x50000001
      8a:	26b9534d 	ldrtcs	r5, [r9], sp, asr #6
      8e:	26ad3453 	ssatcs	r3, #14, r3, asr #8
      92:	261d434d 	ldrcs	r4, [sp], -sp, asr #6
      96:	26053443 	strcs	r3, [r5], -r3, asr #8
      9a:	25914255 	ldrcs	r4, [r1, #597]	; 0x255
      9e:	01a95444 			; <UNDEFINED> instruction: 0x01a95444
      a2:	01af4544 			; <UNDEFINED> instruction: 0x01af4544
      a6:	01455657 	cmpeq	r5, r7, asr r6
      aa:	24914649 	ldrcs	r4, [r1], #1609	; 0x649
      ae:	23e55845 	mvncs	r5, #4521984	; 0x450000
      b2:	236d4552 	cmncs	sp, #343932928	; 0x14800000
      b6:	23b55052 			; <UNDEFINED> instruction: 0x23b55052
      ba:	23514346 	cmpcs	r1, #402653185	; 0x18000001
      be:	23215843 			; <UNDEFINED> instruction: 0x23215843
	...

000000c4 <data_table>:
      c4:	00505247 	subseq	r5, r0, r7, asr #4
      c8:	00585243 	subseq	r5, r8, r3, asr #4
      cc:	01cc4653 	biceq	r4, ip, r3, asr r6
      d0:	024c4453 	subeq	r4, ip, #1392508928	; 0x53000000
      d4:	01ca5a46 	biceq	r5, sl, r6, asr #20
      d8:	27345346 	ldrcs	r5, [r4, -r6, asr #6]!
      dc:	2e284546 	cfsh64cs	mvdx4, mvdx8, #38
      e0:	2e305344 	cdpcs	3, 3, cr5, cr0, cr4, {2}
      e4:	3da44544 	cfstr32cc	mvfx4, [r4, #272]!	; 0x110
	...

000000ea <_start>:
      ea:	487d      	ldr	r0, [pc, #500]	; (2e0 <_+0xa>)
      ec:	6801      	ldr	r1, [r0, #0]
      ee:	2900      	cmp	r1, #0
      f0:	d128      	bne.n	144 <wait_for_vector>
      f2:	f7ff ff9f 	bl	34 <_nmi>

000000f6 <check_rescue>:
      f6:	497b      	ldr	r1, [pc, #492]	; (2e4 <_+0xe>)
      f8:	680a      	ldr	r2, [r1, #0]
      fa:	0e53      	lsrs	r3, r2, #25
      fc:	d301      	bcc.n	102 <disable_adc_ie>
      fe:	600a      	str	r2, [r1, #0]
     100:	e796      	b.n	30 <_dead>

00000102 <disable_adc_ie>:
     102:	2080      	movs	r0, #128	; 0x80
     104:	0040      	lsls	r0, r0, #1
     106:	f000 f848 	bl	19a <unreset_block_wait_noinline>
     10a:	4977      	ldr	r1, [pc, #476]	; (2e8 <_+0x12>)
     10c:	2240      	movs	r2, #64	; 0x40
     10e:	66ca      	str	r2, [r1, #108]	; 0x6c
     110:	670a      	str	r2, [r1, #112]	; 0x70
     112:	674a      	str	r2, [r1, #116]	; 0x74
     114:	678a      	str	r2, [r1, #120]	; 0x78

00000116 <check_wdog>:
     116:	4f75      	ldr	r7, [pc, #468]	; (2ec <_+0x16>)
     118:	4e75      	ldr	r6, [pc, #468]	; (2f0 <_+0x1a>)
     11a:	cf0f      	ldmia	r7!, {r0, r1, r2, r3}
     11c:	42b0      	cmp	r0, r6
     11e:	d107      	bne.n	130 <check_wdog+0x1a>
     120:	4059      	eors	r1, r3
     122:	1840      	adds	r0, r0, r1
     124:	d104      	bne.n	130 <check_wdog+0x1a>
     126:	3f10      	subs	r7, #16
     128:	6038      	str	r0, [r7, #0]
     12a:	f382 8808 	msr	MSP, r2
     12e:	4798      	blx	r3
     130:	f002 f9ce 	bl	24d0 <main>

00000134 <send_and_then_again>:
     134:	bf20      	wfe

00000136 <send_and_then>:
     136:	6d21      	ldr	r1, [r4, #80]	; 0x50
     138:	0889      	lsrs	r1, r1, #2
     13a:	d3fb      	bcc.n	134 <send_and_then_again>
     13c:	6560      	str	r0, [r4, #84]	; 0x54
     13e:	bf40      	sev
     140:	1c6e      	adds	r6, r5, #1
     142:	4730      	bx	r6

00000144 <wait_for_vector>:
     144:	4c66      	ldr	r4, [pc, #408]	; (2e0 <_+0xa>)
     146:	4f6b      	ldr	r7, [pc, #428]	; (2f4 <_+0x1e>)
     148:	2104      	movs	r1, #4
     14a:	6139      	str	r1, [r7, #16]
     14c:	6da1      	ldr	r1, [r4, #88]	; 0x58

0000014e <core_0_handshake_loop>:
     14e:	6d21      	ldr	r1, [r4, #80]	; 0x50
     150:	0849      	lsrs	r1, r1, #1
     152:	d2fb      	bcs.n	14c <wait_for_vector+0x8>
     154:	a50a      	add	r5, pc, #40	; (adr r5, 180 <receive_and_check_zero>)
     156:	2000      	movs	r0, #0
     158:	f7ff ffed 	bl	136 <send_and_then>
     15c:	2801      	cmp	r0, #1
     15e:	d1f6      	bne.n	14e <core_0_handshake_loop>
     160:	f7ff ffe9 	bl	136 <send_and_then>
     164:	60b8      	str	r0, [r7, #8]
     166:	f7ff ffe6 	bl	136 <send_and_then>
     16a:	f380 8808 	msr	MSP, r0
     16e:	f7ff ffe2 	bl	136 <send_and_then>
     172:	a501      	add	r5, pc, #4	; (adr r5, 178 <core1_launch>)
     174:	f7ff ffdf 	bl	136 <send_and_then>

00000178 <core1_launch>:
     178:	2100      	movs	r1, #0
     17a:	6139      	str	r1, [r7, #16]
     17c:	4780      	blx	r0
     17e:	e757      	b.n	30 <_dead>

00000180 <receive_and_check_zero>:
     180:	bf20      	wfe
     182:	6d20      	ldr	r0, [r4, #80]	; 0x50
     184:	0840      	lsrs	r0, r0, #1
     186:	d3fb      	bcc.n	180 <receive_and_check_zero>
     188:	6da0      	ldr	r0, [r4, #88]	; 0x58
     18a:	2800      	cmp	r0, #0
     18c:	d0df      	beq.n	14e <core_0_handshake_loop>
     18e:	4770      	bx	lr

00000190 <reset_block_noinline>:
     190:	4959      	ldr	r1, [pc, #356]	; (2f8 <_+0x22>)
     192:	6008      	str	r0, [r1, #0]
     194:	4770      	bx	lr

00000196 <reset_unreset_block_wait_noinline>:
     196:	4958      	ldr	r1, [pc, #352]	; (2f8 <_+0x22>)
     198:	6008      	str	r0, [r1, #0]

0000019a <unreset_block_wait_noinline>:
     19a:	4958      	ldr	r1, [pc, #352]	; (2fc <_+0x26>)
     19c:	4a58      	ldr	r2, [pc, #352]	; (300 <_+0x2a>)
     19e:	6010      	str	r0, [r2, #0]
     1a0:	688a      	ldr	r2, [r1, #8]
     1a2:	4390      	bics	r0, r2
     1a4:	d1fc      	bne.n	1a0 <unreset_block_wait_noinline+0x6>
     1a6:	4770      	bx	lr

000001a8 <debug_trampoline>:
     1a8:	2601      	movs	r6, #1
     1aa:	4337      	orrs	r7, r6
     1ac:	47b8      	blx	r7

000001ae <debug_trampoline_end>:
     1ae:	be00      	bkpt	0x0000
     1b0:	e7fa      	b.n	1a8 <debug_trampoline>
     1b2:	7ac03811 	bvc	ff00e1fe <IOPORT+0x2f00e1fe>
     1b6:	b500bd00 	strlt	fp, [r0, #-3328]	; 0xfffff300
     1ba:	2a004042 	bcs	102ca <platform.c.c204d31d+0x3e38>
     1be:	f802f000 			; <UNDEFINED> instruction: 0xf802f000
     1c2:	468ed2f6 			; <UNDEFINED> instruction: 0x468ed2f6
     1c6:	47004670 	smlsdxmi	r0, r0, r6, r4

000001ca <soft_float_table_size>:
     1ca:	 	blcs	1140252 <platform.c.c204d31d+0x1133dc0>

000001cc <soft_float_table>:
     1cc:	00002b45 	andeq	r2, r0, r5, asr #22
     1d0:	00002b41 	andeq	r2, r0, r1, asr #22
     1d4:	00002c0d 	andeq	r2, r0, sp, lsl #24
     1d8:	00002cd9 	ldrdeq	r2, [r0], -r9
     1dc:	00002803 	andeq	r2, r0, r3, lsl #16
     1e0:	00002803 	andeq	r2, r0, r3, lsl #16
     1e4:	00002d8d 	andeq	r2, r0, sp, lsl #27
     1e8:	00002829 	andeq	r2, r0, r9, lsr #16
     1ec:	0000282b 	andeq	r2, r0, fp, lsr #16
     1f0:	0000285d 	andeq	r2, r0, sp, asr r8
     1f4:	0000285f 	andeq	r2, r0, pc, asr r8
     1f8:	000028b3 			; <UNDEFINED> instruction: 0x000028b3
     1fc:	000028b5 			; <UNDEFINED> instruction: 0x000028b5
     200:	000028c3 	andeq	r2, r0, r3, asr #17
     204:	000028c5 	andeq	r2, r0, r5, asr #17
     208:	0000299b 	muleq	r0, fp, r9
     20c:	00002951 	andeq	r2, r0, r1, asr r9
     210:	000029b9 			; <UNDEFINED> instruction: 0x000029b9
     214:	00002951 	andeq	r2, r0, r1, asr r9
     218:	000029c1 	andeq	r2, r0, r1, asr #19
     21c:	00002a2b 	andeq	r2, r0, fp, lsr #20
     220:	000027e7 	andeq	r2, r0, r7, ror #15
     224:	00002a4f 	andeq	r2, r0, pc, asr #20
     228:	0000288b 	andeq	r2, r0, fp, lsl #17
     22c:	0000288d 	andeq	r2, r0, sp, lsl #17
     230:	00002879 	andeq	r2, r0, r9, ror r8
     234:	0000287b 	andeq	r2, r0, fp, ror r8
     238:	0000355d 	andeq	r3, r0, sp, asr r5
     23c:	0000355f 	andeq	r3, r0, pc, asr r5
     240:	00003567 	andeq	r3, r0, r7, ror #10
     244:	00003569 	andeq	r3, r0, r9, ror #10
     248:	00003619 	andeq	r3, r0, r9, lsl r6

0000024c <soft_double_table>:
     24c:	00002e3d 	andeq	r2, r0, sp, lsr lr
     250:	00002e31 	andeq	r2, r0, r1, lsr lr
     254:	00002f99 	muleq	r0, r9, pc	; <UNPREDICTABLE>
     258:	000030f5 	strdeq	r3, [r0], -r5
     25c:	00003447 	andeq	r3, r0, r7, asr #8
     260:	00003447 	andeq	r3, r0, r7, asr #8
     264:	000032b9 			; <UNDEFINED> instruction: 0x000032b9
     268:	00003541 	andeq	r3, r0, r1, asr #10
     26c:	00003543 	andeq	r3, r0, r3, asr #10
     270:	0000354f 	andeq	r3, r0, pc, asr #10
     274:	00003551 	andeq	r3, r0, r1, asr r5
     278:	0000369f 	muleq	r0, pc, r6	; <UNPREDICTABLE>
     27c:	000036a1 	andeq	r3, r0, r1, lsr #13
     280:	00003697 	muleq	r0, r7, r6
     284:	00003699 	muleq	r0, r9, r6
     288:	0000380d 	andeq	r3, r0, sp, lsl #16
     28c:	0000381d 	andeq	r3, r0, sp, lsl r8
     290:	000037ed 	andeq	r3, r0, sp, ror #15
     294:	00003831 	andeq	r3, r0, r1, lsr r8
     298:	00003b3d 	andeq	r3, r0, sp, lsr fp
     29c:	00003bd9 	ldrdeq	r3, [r0], -r9
     2a0:	0000344b 	andeq	r3, r0, fp, asr #8
     2a4:	00003929 	andeq	r3, r0, r9, lsr #18
     2a8:	000036ad 	andeq	r3, r0, sp, lsr #13
     2ac:	000036af 	andeq	r3, r0, pc, lsr #13
     2b0:	000036a7 	andeq	r3, r0, r7, lsr #13
     2b4:	000036a9 	andeq	r3, r0, r9, lsr #13
     2b8:	0000359d 	muleq	r0, sp, r5
     2bc:	0000359f 	muleq	r0, pc, r5	; <UNPREDICTABLE>
     2c0:	000035b7 			; <UNDEFINED> instruction: 0x000035b7
     2c4:	000035b9 			; <UNDEFINED> instruction: 0x000035b9
     2c8:	0000363f 	andeq	r3, r0, pc, lsr r6

000002cc <async_task_worker_thunk>:
     2cc:	480d      	ldr	r0, [pc, #52]	; (304 <_+0x2e>)
     2ce:	f380 8808 	msr	MSP, r0
     2d2:	f001 ff01 	bl	20d8 <async_task_worker>

000002d6 <_>:
     2d6:	40000000 	andmi	r0, r0, r0
     2da:	80a04000 	adchi	r4, r0, r0
     2de:	00004000 	andeq	r4, r0, r0
     2e2:	4008d000 	andmi	sp, r8, r0
     2e6:	f0004006 			; <UNDEFINED> instruction: 0xf0004006
     2ea:	801c4001 	andshi	r4, ip, r1
     2ee:	c0d34005 	sbcsgt	r4, r3, r5
     2f2:	ed00b007 	stc	0, cr11, [r0, #-28]	; 0xffffffe4
     2f6:	e000e000 	and	lr, r0, r0
     2fa:	c0004000 	andgt	r4, r0, r0
     2fe:	f0004000 			; <UNDEFINED> instruction: 0xf0004000
     302:	08b04000 	ldmeq	r0!, {lr}
     306:	 	ldmdbmi	r3!, {r4, ip, lr}

00000308 <popcount32>:
     308:	4933      	ldr	r1, [pc, #204]	; (3d8 <rt0_literals+0x2>)
     30a:	0842      	lsrs	r2, r0, #1
     30c:	400a      	ands	r2, r1
     30e:	0883      	lsrs	r3, r0, #2
     310:	400b      	ands	r3, r1
     312:	4008      	ands	r0, r1
     314:	1880      	adds	r0, r0, r2
     316:	18c0      	adds	r0, r0, r3
     318:	08c1      	lsrs	r1, r0, #3
     31a:	1840      	adds	r0, r0, r1
     31c:	492f      	ldr	r1, [pc, #188]	; (3dc <rt0_literals+0x6>)
     31e:	4008      	ands	r0, r1
     320:	0981      	lsrs	r1, r0, #6
     322:	1840      	adds	r0, r0, r1
     324:	492e      	ldr	r1, [pc, #184]	; (3e0 <rt0_literals+0xa>)
     326:	4348      	muls	r0, r1
     328:	0e80      	lsrs	r0, r0, #26
     32a:	4770      	bx	lr

0000032c <reverse32>:
     32c:	4a2d      	ldr	r2, [pc, #180]	; (3e4 <rt0_literals+0xe>)
     32e:	0851      	lsrs	r1, r2, #1
     330:	4051      	eors	r1, r2
     332:	0043      	lsls	r3, r0, #1
     334:	400b      	ands	r3, r1
     336:	4008      	ands	r0, r1
     338:	0840      	lsrs	r0, r0, #1
     33a:	4318      	orrs	r0, r3
     33c:	0083      	lsls	r3, r0, #2
     33e:	4013      	ands	r3, r2
     340:	4010      	ands	r0, r2
     342:	0880      	lsrs	r0, r0, #2
     344:	4303      	orrs	r3, r0
     346:	4a28      	ldr	r2, [pc, #160]	; (3e8 <rt0_literals+0x12>)
     348:	0118      	lsls	r0, r3, #4
     34a:	4010      	ands	r0, r2
     34c:	4013      	ands	r3, r2
     34e:	091b      	lsrs	r3, r3, #4
     350:	4318      	orrs	r0, r3
     352:	ba00      	rev	r0, r0
     354:	4770      	bx	lr

00000356 <clz32>:
     356:	a325      	add	r3, pc, #148	; (adr r3, 3ec <clz6_table>)
     358:	0c01      	lsrs	r1, r0, #16
     35a:	d10c      	bne.n	376 <clz32_0_15_n>
     35c:	0a81      	lsrs	r1, r0, #10
     35e:	d104      	bne.n	36a <clz32_16_21_l>
     360:	0901      	lsrs	r1, r0, #4
     362:	d105      	bne.n	370 <clz32_22_27_l>
     364:	5c18      	ldrb	r0, [r3, r0]
     366:	301a      	adds	r0, #26
     368:	4770      	bx	lr

0000036a <clz32_16_21_l>:
     36a:	5c58      	ldrb	r0, [r3, r1]
     36c:	3010      	adds	r0, #16
     36e:	4770      	bx	lr

00000370 <clz32_22_27_l>:
     370:	5c58      	ldrb	r0, [r3, r1]
     372:	3016      	adds	r0, #22
     374:	4770      	bx	lr

00000376 <clz32_0_15_n>:
     376:	0a88      	lsrs	r0, r1, #10
     378:	d104      	bne.n	384 <clz32_0_5_l>
     37a:	0908      	lsrs	r0, r1, #4
     37c:	d104      	bne.n	388 <clz32_6_11_l>
     37e:	5c58      	ldrb	r0, [r3, r1]
     380:	300a      	adds	r0, #10
     382:	4770      	bx	lr

00000384 <clz32_0_5_l>:
     384:	5c18      	ldrb	r0, [r3, r0]
     386:	4770      	bx	lr

00000388 <clz32_6_11_l>:
     388:	5c18      	ldrb	r0, [r3, r0]
     38a:	3006      	adds	r0, #6
     38c:	4770      	bx	lr

0000038e <ctz32>:
     38e:	a327      	add	r3, pc, #156	; (adr r3, 42c <ctz6_table>)
     390:	0401      	lsls	r1, r0, #16
     392:	d00f      	beq.n	3b4 <ctz32_16_31_n>

00000394 <ctz32_0_15_n>:
     394:	0188      	lsls	r0, r1, #6
     396:	d005      	beq.n	3a4 <ctz32_10_15_l>
     398:	0181      	lsls	r1, r0, #6
     39a:	d007      	beq.n	3ac <ctz32_4_9_l>
     39c:	0f09      	lsrs	r1, r1, #28
     39e:	3110      	adds	r1, #16
     3a0:	5c58      	ldrb	r0, [r3, r1]
     3a2:	4770      	bx	lr

000003a4 <ctz32_10_15_l>:
     3a4:	0e89      	lsrs	r1, r1, #26
     3a6:	5c58      	ldrb	r0, [r3, r1]
     3a8:	300a      	adds	r0, #10
     3aa:	4770      	bx	lr

000003ac <ctz32_4_9_l>:
     3ac:	0e80      	lsrs	r0, r0, #26
     3ae:	5c18      	ldrb	r0, [r3, r0]
     3b0:	3004      	adds	r0, #4
     3b2:	4770      	bx	lr

000003b4 <ctz32_16_31_n>:
     3b4:	0181      	lsls	r1, r0, #6
     3b6:	d006      	beq.n	3c6 <ctz32_26_31_l>
     3b8:	0188      	lsls	r0, r1, #6
     3ba:	d008      	beq.n	3ce <ctz32_20_25_l>
     3bc:	0f00      	lsrs	r0, r0, #28
     3be:	3010      	adds	r0, #16
     3c0:	5c18      	ldrb	r0, [r3, r0]
     3c2:	3010      	adds	r0, #16
     3c4:	4770      	bx	lr

000003c6 <ctz32_26_31_l>:
     3c6:	0e80      	lsrs	r0, r0, #26
     3c8:	5c18      	ldrb	r0, [r3, r0]
     3ca:	301a      	adds	r0, #26
     3cc:	4770      	bx	lr

000003ce <ctz32_20_25_l>:
     3ce:	0e89      	lsrs	r1, r1, #26
     3d0:	5c58      	ldrb	r0, [r3, r1]
     3d2:	3014      	adds	r0, #20
     3d4:	4770      	bx	lr

000003d6 <rt0_literals>:
     3d6:	92490000 	subls	r0, r9, #0
     3da:	71c74924 	bicvc	r4, r7, r4, lsr #18
     3de:	4004c71c 	andmi	ip, r4, ip, lsl r7
     3e2:	cccc0400 	cfstrdgt	mvd0, [ip], {0}
     3e6:	f0f0cccc 			; <UNDEFINED> instruction: 0xf0f0cccc
     3ea:	 	streq	pc, [r6, #-240]	; 0xffffff10

000003ec <clz6_table>:
     3ec:	04040506 	streq	r0, [r4], #-1286	; 0xfffffafa
     3f0:	03030303 	movweq	r0, #13059	; 0x3303
     3f4:	02020202 	andeq	r0, r2, #536870912	; 0x20000000
     3f8:	02020202 	andeq	r0, r2, #536870912	; 0x20000000
     3fc:	01010101 	tsteq	r1, r1, lsl #2
     400:	01010101 	tsteq	r1, r1, lsl #2
     404:	01010101 	tsteq	r1, r1, lsl #2
     408:	01010101 	tsteq	r1, r1, lsl #2
	...

0000042c <ctz6_table>:
     42c:	00010006 	andeq	r0, r1, r6
     430:	00010002 	andeq	r0, r1, r2
     434:	00010003 	andeq	r0, r1, r3
     438:	00010002 	andeq	r0, r1, r2
     43c:	00010004 	andeq	r0, r1, r4
     440:	00010002 	andeq	r0, r1, r2
     444:	00010003 	andeq	r0, r1, r3
     448:	00010002 	andeq	r0, r1, r2
     44c:	00010005 	andeq	r0, r1, r5
     450:	00010002 	andeq	r0, r1, r2
     454:	00010003 	andeq	r0, r1, r3
     458:	00010002 	andeq	r0, r1, r2
     45c:	00010004 	andeq	r0, r1, r4
     460:	00010002 	andeq	r0, r1, r2
     464:	00010003 	andeq	r0, r1, r3
     468:	00010002 	andeq	r0, r1, r2

0000046c <_rom_functions>:
     46c:	20d10031 	sbcscs	r0, r1, r1, lsr r0
     470:	1c392159 	ldfnes	f2, [r9], #-356	; 0xfffffe9c
     474:	1dbd1b99 			; <UNDEFINED> instruction: 0x1dbd1b99
     478:	be0022ed 	cdplt	2, 0, cr2, cr0, cr13, {7}

0000047c <_msc_on_sector_stream_packet_complete>:
     47c:	4a02      	ldr	r2, [pc, #8]	; (488 <_msc_on_sector_stream_packet_complete+0xc>)
     47e:	6893      	ldr	r3, [r2, #8]
     480:	3b40      	subs	r3, #64	; 0x40
     482:	6093      	str	r3, [r2, #8]
     484:	4770      	bx	lr
     486:	46c0      	nop			; (mov r8, r8)
     488:	50100a7c 	andspl	r0, r0, ip, ror sl

0000048c <_tf_set_address>:
     48c:	4a02      	ldr	r2, [pc, #8]	; (498 <_tf_set_address+0xc>)
     48e:	7d93      	ldrb	r3, [r2, #22]
     490:	7513      	strb	r3, [r2, #20]
     492:	4a02      	ldr	r2, [pc, #8]	; (49c <_tf_set_address+0x10>)
     494:	6013      	str	r3, [r2, #0]
     496:	4770      	bx	lr
     498:	501009ec 	andspl	r0, r0, ip, ror #19
     49c:	50110000 	andspl	r0, r1, r0

000004a0 <usb_reset_transfer>:
     4a0:	2300      	movs	r3, #0
     4a2:	6001      	str	r1, [r0, #0]
     4a4:	6103      	str	r3, [r0, #16]
     4a6:	6042      	str	r2, [r0, #4]
     4a8:	784b      	ldrb	r3, [r1, #1]
     4aa:	60c3      	str	r3, [r0, #12]
     4ac:	6083      	str	r3, [r0, #8]
     4ae:	4770      	bx	lr

000004b0 <_usb_call_on_packet>:
     4b0:	4904      	ldr	r1, [pc, #16]	; (4c4 <_usb_call_on_packet+0x14>)
     4b2:	6883      	ldr	r3, [r0, #8]
     4b4:	2201      	movs	r2, #1
     4b6:	741a      	strb	r2, [r3, #16]
     4b8:	681b      	ldr	r3, [r3, #0]
     4ba:	781b      	ldrb	r3, [r3, #0]
     4bc:	5acb      	ldrh	r3, [r1, r3]
     4be:	4313      	orrs	r3, r2
     4c0:	4718      	bx	r3
     4c2:	046c0000 	strbteq	r0, [ip], #-0
	...

000004c8 <_usb_endpoint_hw_init>:
     4c8:	6803      	ldr	r3, [r0, #0]
     4ca:	b570      	push	{r4, r5, r6, lr}
     4cc:	1e19      	subs	r1, r3, #0
     4ce:	d002      	beq.n	4d6 <_usb_endpoint_hw_init+0xe>
     4d0:	7899      	ldrb	r1, [r3, #2]
     4d2:	230f      	movs	r3, #15
     4d4:	4019      	ands	r1, r3
     4d6:	2400      	movs	r4, #0
     4d8:	2500      	movs	r5, #0
     4da:	4a12      	ldr	r2, [pc, #72]	; (524 <_usb_endpoint_hw_init+0x5c>)
     4dc:	00cb      	lsls	r3, r1, #3
     4de:	189a      	adds	r2, r3, r2
     4e0:	6014      	str	r4, [r2, #0]
     4e2:	6055      	str	r5, [r2, #4]
     4e4:	0004      	movs	r4, r0
     4e6:	4e10      	ldr	r6, [pc, #64]	; (528 <_usb_endpoint_hw_init+0x60>)
     4e8:	3428      	adds	r4, #40	; 0x28
     4ea:	8b32      	ldrh	r2, [r6, #24]
     4ec:	8282      	strh	r2, [r0, #20]
     4ee:	7825      	ldrb	r5, [r4, #0]
     4f0:	2440      	movs	r4, #64	; 0x40
     4f2:	2d00      	cmp	r5, #0
     4f4:	d000      	beq.n	4f8 <_usb_endpoint_hw_init+0x30>
     4f6:	1924      	adds	r4, r4, r4
     4f8:	1914      	adds	r4, r2, r4
     4fa:	8334      	strh	r4, [r6, #24]
     4fc:	2900      	cmp	r1, #0
     4fe:	d00e      	beq.n	51e <_usb_endpoint_hw_init+0x56>
     500:	2154      	movs	r1, #84	; 0x54
     502:	2d00      	cmp	r5, #0
     504:	d000      	beq.n	508 <_usb_endpoint_hw_init+0x40>
     506:	3120      	adds	r1, #32
     508:	0649      	lsls	r1, r1, #25
     50a:	3029      	adds	r0, #41	; 0x29
     50c:	1852      	adds	r2, r2, r1
     50e:	7801      	ldrb	r1, [r0, #0]
     510:	4806      	ldr	r0, [pc, #24]	; (52c <_usb_endpoint_hw_init+0x64>)
     512:	181b      	adds	r3, r3, r0
     514:	2900      	cmp	r1, #0
     516:	d003      	beq.n	520 <_usb_endpoint_hw_init+0x58>
     518:	601a      	str	r2, [r3, #0]
     51a:	2200      	movs	r2, #0
     51c:	605a      	str	r2, [r3, #4]
     51e:	bd70      	pop	{r4, r5, r6, pc}
     520:	6019      	str	r1, [r3, #0]
     522:	e7fb      	b.n	51c <_usb_endpoint_hw_init+0x54>
     524:	50100080 	andspl	r0, r0, r0, lsl #1
     528:	501009ec 	andspl	r0, r0, ip, ror #19
     52c:	50100000 	andspl	r0, r0, r0

00000530 <_usb_endpoint_init_internal>:
     530:	b530      	push	{r4, r5, lr}
     532:	1c45      	adds	r5, r0, #1
     534:	b2c9      	uxtb	r1, r1
     536:	77e9      	strb	r1, [r5, #31]
     538:	3528      	adds	r5, #40	; 0x28
     53a:	702a      	strb	r2, [r5, #0]
     53c:	82c3      	strh	r3, [r0, #22]
     53e:	0003      	movs	r3, r0
     540:	ac03      	add	r4, sp, #12
     542:	7824      	ldrb	r4, [r4, #0]
     544:	3328      	adds	r3, #40	; 0x28
     546:	701c      	strb	r4, [r3, #0]
     548:	2301      	movs	r3, #1
     54a:	0049      	lsls	r1, r1, #1
     54c:	405a      	eors	r2, r3
     54e:	1889      	adds	r1, r1, r2
     550:	1cc3      	adds	r3, r0, #3
     552:	77d9      	strb	r1, [r3, #31]
     554:	bd30      	pop	{r4, r5, pc}
     556:	be00      	bkpt	0x0000

00000558 <usb_interface_init.constprop.0>:
     558:	0013      	movs	r3, r2
     55a:	b5f0      	push	{r4, r5, r6, r7, lr}
     55c:	0006      	movs	r6, r0
     55e:	000c      	movs	r4, r1
     560:	0015      	movs	r5, r2
     562:	b085      	sub	sp, #20
     564:	3308      	adds	r3, #8
     566:	6001      	str	r1, [r0, #0]
     568:	9303      	str	r3, [sp, #12]
     56a:	7823      	ldrb	r3, [r4, #0]
     56c:	18e4      	adds	r4, r4, r3
     56e:	7863      	ldrb	r3, [r4, #1]
     570:	2b05      	cmp	r3, #5
     572:	d1fa      	bne.n	56a <usb_interface_init.constprop.0+0x12>
     574:	7963      	ldrb	r3, [r4, #5]
     576:	7921      	ldrb	r1, [r4, #4]
     578:	021b      	lsls	r3, r3, #8
     57a:	430b      	orrs	r3, r1
     57c:	270f      	movs	r7, #15
     57e:	2101      	movs	r1, #1
     580:	78a2      	ldrb	r2, [r4, #2]
     582:	9100      	str	r1, [sp, #0]
     584:	4017      	ands	r7, r2
     586:	0039      	movs	r1, r7
     588:	6828      	ldr	r0, [r5, #0]
     58a:	09d2      	lsrs	r2, r2, #7
     58c:	f7ff ffd0 	bl	530 <_usb_endpoint_init_internal>
     590:	cd08      	ldmia	r5!, {r3}
     592:	4a05      	ldr	r2, [pc, #20]	; (5a8 <usb_interface_init.constprop.0+0x50>)
     594:	00bf      	lsls	r7, r7, #2
     596:	601c      	str	r4, [r3, #0]
     598:	50bb      	str	r3, [r7, r2]
     59a:	9b03      	ldr	r3, [sp, #12]
     59c:	42ab      	cmp	r3, r5
     59e:	d1e4      	bne.n	56a <usb_interface_init.constprop.0+0x12>
     5a0:	0030      	movs	r0, r6
     5a2:	b005      	add	sp, #20
     5a4:	bdf0      	pop	{r4, r5, r6, r7, pc}
     5a6:	46c0      	nop			; (mov r8, r8)
     5a8:	50100a08 	andspl	r0, r0, r8, lsl #20

000005ac <_usb_buf_ctrl_wide>:
     5ac:	1c43      	adds	r3, r0, #1
     5ae:	7fdb      	ldrb	r3, [r3, #31]
     5b0:	3029      	adds	r0, #41	; 0x29
     5b2:	7802      	ldrb	r2, [r0, #0]
     5b4:	4903      	ldr	r1, [pc, #12]	; (5c4 <_usb_buf_ctrl_wide+0x18>)
     5b6:	00db      	lsls	r3, r3, #3
     5b8:	1858      	adds	r0, r3, r1
     5ba:	2a00      	cmp	r2, #0
     5bc:	d001      	beq.n	5c2 <_usb_buf_ctrl_wide+0x16>
     5be:	4a02      	ldr	r2, [pc, #8]	; (5c8 <_usb_buf_ctrl_wide+0x1c>)
     5c0:	1898      	adds	r0, r3, r2
     5c2:	4770      	bx	lr
     5c4:	50100084 	andspl	r0, r0, r4, lsl #1
     5c8:	50100080 	andspl	r0, r0, r0, lsl #1

000005cc <usb_current_packet_buffer>:
     5cc:	b570      	push	{r4, r5, r6, lr}
     5ce:	0006      	movs	r6, r0
     5d0:	7f83      	ldrb	r3, [r0, #30]
     5d2:	0004      	movs	r4, r0
     5d4:	3618      	adds	r6, #24
     5d6:	2b00      	cmp	r3, #0
     5d8:	d11f      	bne.n	61a <usb_current_packet_buffer+0x4e>
     5da:	8ac3      	ldrh	r3, [r0, #22]
     5dc:	7743      	strb	r3, [r0, #29]
     5de:	0003      	movs	r3, r0
     5e0:	3329      	adds	r3, #41	; 0x29
     5e2:	7819      	ldrb	r1, [r3, #0]
     5e4:	1d43      	adds	r3, r0, #5
     5e6:	2900      	cmp	r1, #0
     5e8:	d100      	bne.n	5ec <usb_current_packet_buffer+0x20>
     5ea:	1d83      	adds	r3, r0, #6
     5ec:	7fdd      	ldrb	r5, [r3, #31]
     5ee:	8aa3      	ldrh	r3, [r4, #20]
     5f0:	002a      	movs	r2, r5
     5f2:	1e50      	subs	r0, r2, #1
     5f4:	4182      	sbcs	r2, r0
     5f6:	480a      	ldr	r0, [pc, #40]	; (620 <usb_current_packet_buffer+0x54>)
     5f8:	0192      	lsls	r2, r2, #6
     5fa:	181b      	adds	r3, r3, r0
     5fc:	189b      	adds	r3, r3, r2
     5fe:	61a3      	str	r3, [r4, #24]
     600:	2300      	movs	r3, #0
     602:	4299      	cmp	r1, r3
     604:	d106      	bne.n	614 <usb_current_packet_buffer+0x48>
     606:	0020      	movs	r0, r4
     608:	f7ff ffd0 	bl	5ac <_usb_buf_ctrl_wide>
     60c:	006d      	lsls	r5, r5, #1
     60e:	1945      	adds	r5, r0, r5
     610:	882b      	ldrh	r3, [r5, #0]
     612:	b2db      	uxtb	r3, r3
     614:	7723      	strb	r3, [r4, #28]
     616:	2301      	movs	r3, #1
     618:	77a3      	strb	r3, [r4, #30]
     61a:	0030      	movs	r0, r6
     61c:	bd70      	pop	{r4, r5, r6, pc}
     61e:	46c0      	nop			; (mov r8, r8)
     620:	50100000 	andspl	r0, r0, r0

00000624 <_usb_give_buffer>:
     624:	2200      	movs	r2, #0
     626:	b570      	push	{r4, r5, r6, lr}
     628:	1dc3      	adds	r3, r0, #7
     62a:	77da      	strb	r2, [r3, #31]
     62c:	3301      	adds	r3, #1
     62e:	0004      	movs	r4, r0
     630:	7fd8      	ldrb	r0, [r3, #31]
     632:	4290      	cmp	r0, r2
     634:	d12f      	bne.n	696 <_usb_give_buffer+0x72>
     636:	2380      	movs	r3, #128	; 0x80
     638:	00db      	lsls	r3, r3, #3
     63a:	4319      	orrs	r1, r3
     63c:	0023      	movs	r3, r4
     63e:	3329      	adds	r3, #41	; 0x29
     640:	781b      	ldrb	r3, [r3, #0]
     642:	2b00      	cmp	r3, #0
     644:	d002      	beq.n	64c <_usb_give_buffer+0x28>
     646:	2380      	movs	r3, #128	; 0x80
     648:	021b      	lsls	r3, r3, #8
     64a:	4319      	orrs	r1, r3
     64c:	1ca2      	adds	r2, r4, #2
     64e:	7fd3      	ldrb	r3, [r2, #31]
     650:	2601      	movs	r6, #1
     652:	001d      	movs	r5, r3
     654:	1e68      	subs	r0, r5, #1
     656:	4185      	sbcs	r5, r0
     658:	4073      	eors	r3, r6
     65a:	77d3      	strb	r3, [r2, #31]
     65c:	0020      	movs	r0, r4
     65e:	036d      	lsls	r5, r5, #13
     660:	430d      	orrs	r5, r1
     662:	f7ff ffa3 	bl	5ac <_usb_buf_ctrl_wide>
     666:	1d63      	adds	r3, r4, #5
     668:	7fda      	ldrb	r2, [r3, #31]
     66a:	b2ad      	uxth	r5, r5
     66c:	40b2      	lsls	r2, r6
     66e:	1880      	adds	r0, r0, r2
     670:	2200      	movs	r2, #0
     672:	8005      	strh	r5, [r0, #0]
     674:	1d21      	adds	r1, r4, #4
     676:	77a2      	strb	r2, [r4, #30]
     678:	7fca      	ldrb	r2, [r1, #31]
     67a:	3a01      	subs	r2, #1
     67c:	77ca      	strb	r2, [r1, #31]
     67e:	68a1      	ldr	r1, [r4, #8]
     680:	3428      	adds	r4, #40	; 0x28
     682:	688a      	ldr	r2, [r1, #8]
     684:	3a01      	subs	r2, #1
     686:	608a      	str	r2, [r1, #8]
     688:	7822      	ldrb	r2, [r4, #0]
     68a:	2a00      	cmp	r2, #0
     68c:	d002      	beq.n	694 <_usb_give_buffer+0x70>
     68e:	7fda      	ldrb	r2, [r3, #31]
     690:	4056      	eors	r6, r2
     692:	77de      	strb	r6, [r3, #31]
     694:	bd70      	pop	{r4, r5, r6, pc}
     696:	20a0      	movs	r0, #160	; 0xa0
     698:	0140      	lsls	r0, r0, #5
     69a:	4301      	orrs	r1, r0
     69c:	77da      	strb	r2, [r3, #31]
     69e:	e7cd      	b.n	63c <_usb_give_buffer+0x18>

000006a0 <_usb_give_as_many_buffers_as_possible>:
     6a0:	b570      	push	{r4, r5, r6, lr}
     6a2:	0004      	movs	r4, r0
     6a4:	68a3      	ldr	r3, [r4, #8]
     6a6:	2b00      	cmp	r3, #0
     6a8:	d015      	beq.n	6d6 <_usb_give_as_many_buffers_as_possible+0x36>
     6aa:	689b      	ldr	r3, [r3, #8]
     6ac:	2b00      	cmp	r3, #0
     6ae:	d012      	beq.n	6d6 <_usb_give_as_many_buffers_as_possible+0x36>
     6b0:	1d26      	adds	r6, r4, #4
     6b2:	7ff5      	ldrb	r5, [r6, #31]
     6b4:	2d00      	cmp	r5, #0
     6b6:	d00e      	beq.n	6d6 <_usb_give_as_many_buffers_as_possible+0x36>
     6b8:	1de3      	adds	r3, r4, #7
     6ba:	7fdb      	ldrb	r3, [r3, #31]
     6bc:	2b00      	cmp	r3, #0
     6be:	d10a      	bne.n	6d6 <_usb_give_as_many_buffers_as_possible+0x36>
     6c0:	0023      	movs	r3, r4
     6c2:	3329      	adds	r3, #41	; 0x29
     6c4:	781b      	ldrb	r3, [r3, #0]
     6c6:	2b00      	cmp	r3, #0
     6c8:	d006      	beq.n	6d8 <_usb_give_as_many_buffers_as_possible+0x38>
     6ca:	0020      	movs	r0, r4
     6cc:	f7ff fef0 	bl	4b0 <_usb_call_on_packet>
     6d0:	7ff3      	ldrb	r3, [r6, #31]
     6d2:	42ab      	cmp	r3, r5
     6d4:	d1e6      	bne.n	6a4 <_usb_give_as_many_buffers_as_possible+0x4>
     6d6:	bd70      	pop	{r4, r5, r6, pc}
     6d8:	0020      	movs	r0, r4
     6da:	8ae1      	ldrh	r1, [r4, #22]
     6dc:	f7ff ffa2 	bl	624 <_usb_give_buffer>
     6e0:	e7e0      	b.n	6a4 <_usb_give_as_many_buffers_as_possible+0x4>

000006e2 <usb_reset_and_start_transfer>:
     6e2:	b570      	push	{r4, r5, r6, lr}
     6e4:	000d      	movs	r5, r1
     6e6:	0004      	movs	r4, r0
     6e8:	0011      	movs	r1, r2
     6ea:	0028      	movs	r0, r5
     6ec:	001a      	movs	r2, r3
     6ee:	f7ff fed7 	bl	4a0 <usb_reset_transfer>
     6f2:	2300      	movs	r3, #0
     6f4:	60e3      	str	r3, [r4, #12]
     6f6:	3301      	adds	r3, #1
     6f8:	60a5      	str	r5, [r4, #8]
     6fa:	0020      	movs	r0, r4
     6fc:	74ab      	strb	r3, [r5, #18]
     6fe:	f7ff ffcf 	bl	6a0 <_usb_give_as_many_buffers_as_possible>
     702:	bd70      	pop	{r4, r5, r6, pc}

00000704 <_msc_reset_and_start_cmd_response_transfer>:
     704:	b510      	push	{r4, lr}
     706:	0003      	movs	r3, r0
     708:	4a02      	ldr	r2, [pc, #8]	; (714 <_msc_reset_and_start_cmd_response_transfer+0x10>)
     70a:	4903      	ldr	r1, [pc, #12]	; (718 <_msc_reset_and_start_cmd_response_transfer+0x14>)
     70c:	4803      	ldr	r0, [pc, #12]	; (71c <_msc_reset_and_start_cmd_response_transfer+0x18>)
     70e:	f7ff ffe8 	bl	6e2 <usb_reset_and_start_transfer>
     712:	bd10      	pop	{r4, pc}
     714:	00003f55 	andeq	r3, r0, r5, asr pc
     718:	50100a24 	andspl	r0, r0, r4, lsr #20
     71c:	50100dc0 	andspl	r0, r0, r0, asr #27

00000720 <usb_start_default_transfer_if_not_already_running_or_halted.part.0>:
     720:	6841      	ldr	r1, [r0, #4]
     722:	6883      	ldr	r3, [r0, #8]
     724:	b510      	push	{r4, lr}
     726:	428b      	cmp	r3, r1
     728:	d003      	beq.n	732 <usb_start_default_transfer_if_not_already_running_or_halted.part.0+0x12>
     72a:	2300      	movs	r3, #0
     72c:	680a      	ldr	r2, [r1, #0]
     72e:	f7ff ffd8 	bl	6e2 <usb_reset_and_start_transfer>
     732:	bd10      	pop	{r4, pc}

00000734 <_tf_wait_command>:
     734:	0003      	movs	r3, r0
     736:	b510      	push	{r4, lr}
     738:	3333      	adds	r3, #51	; 0x33
     73a:	7fdb      	ldrb	r3, [r3, #31]
     73c:	302c      	adds	r0, #44	; 0x2c
     73e:	2b00      	cmp	r3, #0
     740:	d101      	bne.n	746 <_tf_wait_command+0x12>
     742:	f7ff ffed 	bl	720 <usb_start_default_transfer_if_not_already_running_or_halted.part.0>
     746:	bd10      	pop	{r4, pc}

00000748 <usb_start_empty_transfer>:
     748:	0003      	movs	r3, r0
     74a:	b570      	push	{r4, r5, r6, lr}
     74c:	3329      	adds	r3, #41	; 0x29
     74e:	781b      	ldrb	r3, [r3, #0]
     750:	0004      	movs	r4, r0
     752:	000d      	movs	r5, r1
     754:	0016      	movs	r6, r2
     756:	2b00      	cmp	r3, #0
     758:	d003      	beq.n	762 <usb_start_empty_transfer+0x1a>
     75a:	f7ff ff37 	bl	5cc <usb_current_packet_buffer>
     75e:	2300      	movs	r3, #0
     760:	7103      	strb	r3, [r0, #4]
     762:	0033      	movs	r3, r6
     764:	0029      	movs	r1, r5
     766:	0020      	movs	r0, r4
     768:	4a01      	ldr	r2, [pc, #4]	; (770 <usb_start_empty_transfer+0x28>)
     76a:	f7ff ffba 	bl	6e2 <usb_reset_and_start_transfer>
     76e:	bd70      	pop	{r4, r5, r6, pc}
     770:	00003f55 	andeq	r3, r0, r5, asr pc

00000774 <usb_start_empty_control_in_transfer_null_completion>:
     774:	b510      	push	{r4, lr}
     776:	2200      	movs	r2, #0
     778:	4902      	ldr	r1, [pc, #8]	; (784 <usb_start_empty_control_in_transfer_null_completion+0x10>)
     77a:	4803      	ldr	r0, [pc, #12]	; (788 <usb_start_empty_control_in_transfer_null_completion+0x14>)
     77c:	f7ff ffe4 	bl	748 <usb_start_empty_transfer>
     780:	bd10      	pop	{r4, pc}
     782:	46c0      	nop			; (mov r8, r8)
     784:	501009c4 	andspl	r0, r0, r4, asr #19
     788:	50100f68 	andspl	r0, r0, r8, ror #30

0000078c <_tf_send_control_in_ack>:
     78c:	b510      	push	{r4, lr}
     78e:	2200      	movs	r2, #0
     790:	4902      	ldr	r1, [pc, #8]	; (79c <_tf_send_control_in_ack+0x10>)
     792:	4803      	ldr	r0, [pc, #12]	; (7a0 <_tf_send_control_in_ack+0x14>)
     794:	f7ff ffd8 	bl	748 <usb_start_empty_transfer>
     798:	bd10      	pop	{r4, pc}
     79a:	46c0      	nop			; (mov r8, r8)
     79c:	501009d8 			; <UNDEFINED> instruction: 0x501009d8
     7a0:	50100f94 	mulspl	r0, r4, pc	; <UNPREDICTABLE>

000007a4 <usb_start_single_buffer_control_in_transfer>:
     7a4:	b510      	push	{r4, lr}
     7a6:	4b03      	ldr	r3, [pc, #12]	; (7b4 <usb_start_single_buffer_control_in_transfer+0x10>)
     7a8:	4a03      	ldr	r2, [pc, #12]	; (7b8 <usb_start_single_buffer_control_in_transfer+0x14>)
     7aa:	4904      	ldr	r1, [pc, #16]	; (7bc <usb_start_single_buffer_control_in_transfer+0x18>)
     7ac:	4804      	ldr	r0, [pc, #16]	; (7c0 <usb_start_single_buffer_control_in_transfer+0x1c>)
     7ae:	f7ff ff98 	bl	6e2 <usb_reset_and_start_transfer>
     7b2:	bd10      	pop	{r4, pc}
     7b4:	0000078d 	andeq	r0, r0, sp, lsl #15
     7b8:	00003f55 	andeq	r3, r0, r5, asr pc
     7bc:	501009c4 	andspl	r0, r0, r4, asr #19
     7c0:	50100f68 	andspl	r0, r0, r8, ror #30

000007c4 <_usb_check_for_transfer_completion>:
     7c4:	b510      	push	{r4, lr}
     7c6:	1dc3      	adds	r3, r0, #7
     7c8:	7fda      	ldrb	r2, [r3, #31]
     7ca:	6881      	ldr	r1, [r0, #8]
     7cc:	2a00      	cmp	r2, #0
     7ce:	d105      	bne.n	7dc <_usb_check_for_transfer_completion+0x18>
     7d0:	68cb      	ldr	r3, [r1, #12]
     7d2:	2b00      	cmp	r3, #0
     7d4:	d10a      	bne.n	7ec <_usb_check_for_transfer_completion+0x28>
     7d6:	7c0b      	ldrb	r3, [r1, #16]
     7d8:	2b00      	cmp	r3, #0
     7da:	d107      	bne.n	7ec <_usb_check_for_transfer_completion+0x28>
     7dc:	2401      	movs	r4, #1
     7de:	2300      	movs	r3, #0
     7e0:	74cc      	strb	r4, [r1, #19]
     7e2:	6083      	str	r3, [r0, #8]
     7e4:	429a      	cmp	r2, r3
     7e6:	d002      	beq.n	7ee <_usb_check_for_transfer_completion+0x2a>
     7e8:	60cb      	str	r3, [r1, #12]
     7ea:	608b      	str	r3, [r1, #8]
     7ec:	bd10      	pop	{r4, pc}
     7ee:	684b      	ldr	r3, [r1, #4]
     7f0:	2b00      	cmp	r3, #0
     7f2:	d001      	beq.n	7f8 <_usb_check_for_transfer_completion+0x34>
     7f4:	4798      	blx	r3
     7f6:	e7f9      	b.n	7ec <_usb_check_for_transfer_completion+0x28>
     7f8:	68c3      	ldr	r3, [r0, #12]
     7fa:	2b00      	cmp	r3, #0
     7fc:	d0f6      	beq.n	7ec <_usb_check_for_transfer_completion+0x28>
     7fe:	6083      	str	r3, [r0, #8]
     800:	60c2      	str	r2, [r0, #12]
     802:	749c      	strb	r4, [r3, #18]
     804:	f7ff ff4c 	bl	6a0 <_usb_give_as_many_buffers_as_possible>
     808:	e7f0      	b.n	7ec <_usb_check_for_transfer_completion+0x28>
     80a:	be00      	bkpt	0x0000

0000080c <_usb_stall_endpoint>:
     80c:	b570      	push	{r4, r5, r6, lr}
     80e:	1dc6      	adds	r6, r0, #7
     810:	7ff3      	ldrb	r3, [r6, #31]
     812:	0004      	movs	r4, r0
     814:	000d      	movs	r5, r1
     816:	2b00      	cmp	r3, #0
     818:	d11a      	bne.n	850 <_usb_stall_endpoint+0x44>
     81a:	1c43      	adds	r3, r0, #1
     81c:	7fdb      	ldrb	r3, [r3, #31]
     81e:	2b00      	cmp	r3, #0
     820:	d107      	bne.n	832 <_usb_stall_endpoint+0x26>
     822:	0003      	movs	r3, r0
     824:	3329      	adds	r3, #41	; 0x29
     826:	781b      	ldrb	r3, [r3, #0]
     828:	425a      	negs	r2, r3
     82a:	4153      	adcs	r3, r2
     82c:	4a0a      	ldr	r2, [pc, #40]	; (858 <_usb_stall_endpoint+0x4c>)
     82e:	3301      	adds	r3, #1
     830:	6693      	str	r3, [r2, #104]	; 0x68
     832:	0020      	movs	r0, r4
     834:	f7ff feba 	bl	5ac <_usb_buf_ctrl_wide>
     838:	2380      	movs	r3, #128	; 0x80
     83a:	6802      	ldr	r2, [r0, #0]
     83c:	011b      	lsls	r3, r3, #4
     83e:	4313      	orrs	r3, r2
     840:	6003      	str	r3, [r0, #0]
     842:	77f5      	strb	r5, [r6, #31]
     844:	6923      	ldr	r3, [r4, #16]
     846:	2b00      	cmp	r3, #0
     848:	d001      	beq.n	84e <_usb_stall_endpoint+0x42>
     84a:	0020      	movs	r0, r4
     84c:	4798      	blx	r3
     84e:	bd70      	pop	{r4, r5, r6, pc}
     850:	428b      	cmp	r3, r1
     852:	d2fc      	bcs.n	84e <_usb_stall_endpoint+0x42>
     854:	77f1      	strb	r1, [r6, #31]
     856:	e7fa      	b.n	84e <_usb_stall_endpoint+0x42>
     858:	50112000 	andspl	r2, r1, r0

0000085c <_usb_handle_transfer>:
     85c:	b570      	push	{r4, r5, r6, lr}
     85e:	2800      	cmp	r0, #0
     860:	d00e      	beq.n	880 <_usb_handle_transfer+0x24>
     862:	4b18      	ldr	r3, [pc, #96]	; (8c4 <_usb_handle_transfer+0x68>)
     864:	0080      	lsls	r0, r0, #2
     866:	58c4      	ldr	r4, [r0, r3]
     868:	1d21      	adds	r1, r4, #4
     86a:	7fcb      	ldrb	r3, [r1, #31]
     86c:	3301      	adds	r3, #1
     86e:	77cb      	strb	r3, [r1, #31]
     870:	68a5      	ldr	r5, [r4, #8]
     872:	2d00      	cmp	r5, #0
     874:	d109      	bne.n	88a <_usb_handle_transfer+0x2e>
     876:	2102      	movs	r1, #2
     878:	0020      	movs	r0, r4
     87a:	f7ff ffc7 	bl	80c <_usb_stall_endpoint>
     87e:	bd70      	pop	{r4, r5, r6, pc}
     880:	4c11      	ldr	r4, [pc, #68]	; (8c8 <_usb_handle_transfer+0x6c>)
     882:	2900      	cmp	r1, #0
     884:	d1f0      	bne.n	868 <_usb_handle_transfer+0xc>
     886:	4c11      	ldr	r4, [pc, #68]	; (8cc <_usb_handle_transfer+0x70>)
     888:	e7ee      	b.n	868 <_usb_handle_transfer+0xc>
     88a:	7c2b      	ldrb	r3, [r5, #16]
     88c:	2b00      	cmp	r3, #0
     88e:	d002      	beq.n	896 <_usb_handle_transfer+0x3a>
     890:	2301      	movs	r3, #1
     892:	746b      	strb	r3, [r5, #17]
     894:	e7f3      	b.n	87e <_usb_handle_transfer+0x22>
     896:	1da3      	adds	r3, r4, #6
     898:	77da      	strb	r2, [r3, #31]
     89a:	3323      	adds	r3, #35	; 0x23
     89c:	781b      	ldrb	r3, [r3, #0]
     89e:	2b00      	cmp	r3, #0
     8a0:	d002      	beq.n	8a8 <_usb_handle_transfer+0x4c>
     8a2:	68ab      	ldr	r3, [r5, #8]
     8a4:	2b00      	cmp	r3, #0
     8a6:	d002      	beq.n	8ae <_usb_handle_transfer+0x52>
     8a8:	0020      	movs	r0, r4
     8aa:	f7ff fe01 	bl	4b0 <_usb_call_on_packet>
     8ae:	7ceb      	ldrb	r3, [r5, #19]
     8b0:	2b00      	cmp	r3, #0
     8b2:	d1e4      	bne.n	87e <_usb_handle_transfer+0x22>
     8b4:	68eb      	ldr	r3, [r5, #12]
     8b6:	0020      	movs	r0, r4
     8b8:	3b01      	subs	r3, #1
     8ba:	60eb      	str	r3, [r5, #12]
     8bc:	f7ff ff82 	bl	7c4 <_usb_check_for_transfer_completion>
     8c0:	e7dd      	b.n	87e <_usb_handle_transfer+0x22>
     8c2:	46c0      	nop			; (mov r8, r8)
     8c4:	50100a08 	andspl	r0, r0, r8, lsl #20
     8c8:	50100f68 	andspl	r0, r0, r8, ror #30
     8cc:	50100f94 	mulspl	r0, r4, pc	; <UNPREDICTABLE>

000008d0 <usb_packet_done>:
     8d0:	2300      	movs	r3, #0
     8d2:	b570      	push	{r4, r5, r6, lr}
     8d4:	6885      	ldr	r5, [r0, #8]
     8d6:	0004      	movs	r4, r0
     8d8:	742b      	strb	r3, [r5, #16]
     8da:	f7ff ff73 	bl	7c4 <_usb_check_for_transfer_completion>
     8de:	7ceb      	ldrb	r3, [r5, #19]
     8e0:	2b00      	cmp	r3, #0
     8e2:	d11b      	bne.n	91c <usb_packet_done+0x4c>
     8e4:	0026      	movs	r6, r4
     8e6:	3629      	adds	r6, #41	; 0x29
     8e8:	7833      	ldrb	r3, [r6, #0]
     8ea:	2b00      	cmp	r3, #0
     8ec:	d003      	beq.n	8f6 <usb_packet_done+0x26>
     8ee:	0020      	movs	r0, r4
     8f0:	7f21      	ldrb	r1, [r4, #28]
     8f2:	f7ff fe97 	bl	624 <_usb_give_buffer>
     8f6:	2300      	movs	r3, #0
     8f8:	77a3      	strb	r3, [r4, #30]
     8fa:	7c6a      	ldrb	r2, [r5, #17]
     8fc:	429a      	cmp	r2, r3
     8fe:	d00e      	beq.n	91e <usb_packet_done+0x4e>
     900:	746b      	strb	r3, [r5, #17]
     902:	1d22      	adds	r2, r4, #4
     904:	7fd3      	ldrb	r3, [r2, #31]
     906:	3b01      	subs	r3, #1
     908:	77d3      	strb	r3, [r2, #31]
     90a:	2201      	movs	r2, #1
     90c:	1da3      	adds	r3, r4, #6
     90e:	7fdb      	ldrb	r3, [r3, #31]
     910:	3401      	adds	r4, #1
     912:	7831      	ldrb	r1, [r6, #0]
     914:	7fe0      	ldrb	r0, [r4, #31]
     916:	405a      	eors	r2, r3
     918:	f7ff ffa0 	bl	85c <_usb_handle_transfer>
     91c:	bd70      	pop	{r4, r5, r6, pc}
     91e:	0020      	movs	r0, r4
     920:	f7ff febe 	bl	6a0 <_usb_give_as_many_buffers_as_possible>
     924:	e7fa      	b.n	91c <usb_packet_done+0x4c>
     926:	be00      	bkpt	0x0000

00000928 <_usb_reset_buffers>:
     928:	b570      	push	{r4, r5, r6, lr}
     92a:	2501      	movs	r5, #1
     92c:	0004      	movs	r4, r0
     92e:	1cc3      	adds	r3, r0, #3
     930:	7fdb      	ldrb	r3, [r3, #31]
     932:	0026      	movs	r6, r4
     934:	409d      	lsls	r5, r3
     936:	f7ff fe39 	bl	5ac <_usb_buf_ctrl_wide>
     93a:	4b17      	ldr	r3, [pc, #92]	; (998 <_usb_reset_buffers+0x70>)
     93c:	6802      	ldr	r2, [r0, #0]
     93e:	3628      	adds	r6, #40	; 0x28
     940:	421a      	tst	r2, r3
     942:	d016      	beq.n	972 <_usb_reset_buffers+0x4a>
     944:	7833      	ldrb	r3, [r6, #0]
     946:	2b00      	cmp	r3, #0
     948:	d003      	beq.n	952 <_usb_reset_buffers+0x2a>
     94a:	1d23      	adds	r3, r4, #4
     94c:	7fdb      	ldrb	r3, [r3, #31]
     94e:	2b01      	cmp	r3, #1
     950:	d104      	bne.n	95c <_usb_reset_buffers+0x34>
     952:	2301      	movs	r3, #1
     954:	1ca2      	adds	r2, r4, #2
     956:	7fd1      	ldrb	r1, [r2, #31]
     958:	404b      	eors	r3, r1
     95a:	77d3      	strb	r3, [r2, #31]
     95c:	4b0f      	ldr	r3, [pc, #60]	; (99c <_usb_reset_buffers+0x74>)
     95e:	4a10      	ldr	r2, [pc, #64]	; (9a0 <_usb_reset_buffers+0x78>)
     960:	661d      	str	r5, [r3, #96]	; 0x60
     962:	2380      	movs	r3, #128	; 0x80
     964:	025b      	lsls	r3, r3, #9
     966:	6e51      	ldr	r1, [r2, #100]	; 0x64
     968:	420d      	tst	r5, r1
     96a:	d102      	bne.n	972 <_usb_reset_buffers+0x4a>
     96c:	3b01      	subs	r3, #1
     96e:	2b00      	cmp	r3, #0
     970:	d1f9      	bne.n	966 <_usb_reset_buffers+0x3e>
     972:	0020      	movs	r0, r4
     974:	f7ff fe1a 	bl	5ac <_usb_buf_ctrl_wide>
     978:	2200      	movs	r2, #0
     97a:	4b0a      	ldr	r3, [pc, #40]	; (9a4 <_usb_reset_buffers+0x7c>)
     97c:	6002      	str	r2, [r0, #0]
     97e:	661d      	str	r5, [r3, #96]	; 0x60
     980:	665d      	str	r5, [r3, #100]	; 0x64
     982:	7833      	ldrb	r3, [r6, #0]
     984:	1e59      	subs	r1, r3, #1
     986:	418b      	sbcs	r3, r1
     988:	1d21      	adds	r1, r4, #4
     98a:	3301      	adds	r3, #1
     98c:	77cb      	strb	r3, [r1, #31]
     98e:	2301      	movs	r3, #1
     990:	84a2      	strh	r2, [r4, #36]	; 0x24
     992:	3408      	adds	r4, #8
     994:	77e3      	strb	r3, [r4, #31]
     996:	bd70      	pop	{r4, r5, r6, pc}
     998:	04000400 	streq	r0, [r0], #-1024	; 0xfffffc00
     99c:	50112000 	andspl	r2, r1, r0
     9a0:	50110000 	andspl	r0, r1, r0
     9a4:	50113000 	andspl	r3, r1, r0

000009a8 <usb_stall_control_pipe.constprop.0>:
     9a8:	b570      	push	{r4, r5, r6, lr}
     9aa:	4d08      	ldr	r5, [pc, #32]	; (9cc <usb_stall_control_pipe.constprop.0+0x24>)
     9ac:	0028      	movs	r0, r5
     9ae:	f7ff ffbb 	bl	928 <_usb_reset_buffers>
     9b2:	4c07      	ldr	r4, [pc, #28]	; (9d0 <usb_stall_control_pipe.constprop.0+0x28>)
     9b4:	0020      	movs	r0, r4
     9b6:	f7ff ffb7 	bl	928 <_usb_reset_buffers>
     9ba:	0028      	movs	r0, r5
     9bc:	2101      	movs	r1, #1
     9be:	f7ff ff25 	bl	80c <_usb_stall_endpoint>
     9c2:	2101      	movs	r1, #1
     9c4:	0020      	movs	r0, r4
     9c6:	f7ff ff21 	bl	80c <_usb_stall_endpoint>
     9ca:	bd70      	pop	{r4, r5, r6, pc}
     9cc:	50100f68 	andspl	r0, r0, r8, ror #30
     9d0:	50100f94 	mulspl	r0, r4, pc	; <UNPREDICTABLE>

000009d4 <_usb_reset_endpoint>:
     9d4:	b570      	push	{r4, r5, r6, lr}
     9d6:	2500      	movs	r5, #0
     9d8:	6085      	str	r5, [r0, #8]
     9da:	000e      	movs	r6, r1
     9dc:	0004      	movs	r4, r0
     9de:	f7ff ffa3 	bl	928 <_usb_reset_buffers>
     9e2:	42ae      	cmp	r6, r5
     9e4:	d001      	beq.n	9ea <_usb_reset_endpoint+0x16>
     9e6:	1ca2      	adds	r2, r4, #2
     9e8:	77d5      	strb	r5, [r2, #31]
     9ea:	77a5      	strb	r5, [r4, #30]
     9ec:	1de2      	adds	r2, r4, #7
     9ee:	7fd1      	ldrb	r1, [r2, #31]
     9f0:	2900      	cmp	r1, #0
     9f2:	d005      	beq.n	a00 <_usb_reset_endpoint+0x2c>
     9f4:	77d5      	strb	r5, [r2, #31]
     9f6:	6923      	ldr	r3, [r4, #16]
     9f8:	2b00      	cmp	r3, #0
     9fa:	d001      	beq.n	a00 <_usb_reset_endpoint+0x2c>
     9fc:	0020      	movs	r0, r4
     9fe:	4798      	blx	r3
     a00:	4b07      	ldr	r3, [pc, #28]	; (a20 <_usb_reset_endpoint+0x4c>)
     a02:	7d5b      	ldrb	r3, [r3, #21]
     a04:	2b00      	cmp	r3, #0
     a06:	d009      	beq.n	a1c <_usb_reset_endpoint+0x48>
     a08:	6861      	ldr	r1, [r4, #4]
     a0a:	2900      	cmp	r1, #0
     a0c:	d006      	beq.n	a1c <_usb_reset_endpoint+0x48>
     a0e:	68a3      	ldr	r3, [r4, #8]
     a10:	2b00      	cmp	r3, #0
     a12:	d103      	bne.n	a1c <_usb_reset_endpoint+0x48>
     a14:	0020      	movs	r0, r4
     a16:	680a      	ldr	r2, [r1, #0]
     a18:	f7ff fe63 	bl	6e2 <usb_reset_and_start_transfer>
     a1c:	bd70      	pop	{r4, r5, r6, pc}
     a1e:	46c0      	nop			; (mov r8, r8)
     a20:	501009ec 	andspl	r0, r0, ip, ror #19

00000a24 <watchdog_reboot>:
     a24:	b510      	push	{r4, lr}
     a26:	4b1c      	ldr	r3, [pc, #112]	; (a98 <watchdog_reboot+0x74>)
     a28:	4c1c      	ldr	r4, [pc, #112]	; (a9c <watchdog_reboot+0x78>)
     a2a:	601c      	str	r4, [r3, #0]
     a2c:	248e      	movs	r4, #142	; 0x8e
     a2e:	4b1c      	ldr	r3, [pc, #112]	; (aa0 <watchdog_reboot+0x7c>)
     a30:	05e4      	lsls	r4, r4, #23
     a32:	601c      	str	r4, [r3, #0]
     a34:	4b1b      	ldr	r3, [pc, #108]	; (aa4 <watchdog_reboot+0x80>)
     a36:	2800      	cmp	r0, #0
     a38:	d02c      	beq.n	a94 <watchdog_reboot+0x70>
     a3a:	2401      	movs	r4, #1
     a3c:	4320      	orrs	r0, r4
     a3e:	4c1a      	ldr	r4, [pc, #104]	; (aa8 <watchdog_reboot+0x84>)
     a40:	61dc      	str	r4, [r3, #28]
     a42:	69dc      	ldr	r4, [r3, #28]
     a44:	4264      	negs	r4, r4
     a46:	4044      	eors	r4, r0
     a48:	621c      	str	r4, [r3, #32]
     a4a:	6259      	str	r1, [r3, #36]	; 0x24
     a4c:	6298      	str	r0, [r3, #40]	; 0x28
     a4e:	21fa      	movs	r1, #250	; 0xfa
     a50:	0089      	lsls	r1, r1, #2
     a52:	434a      	muls	r2, r1
     a54:	605a      	str	r2, [r3, #4]
     a56:	4a15      	ldr	r2, [pc, #84]	; (aac <watchdog_reboot+0x88>)
     a58:	6811      	ldr	r1, [r2, #0]
     a5a:	2202      	movs	r2, #2
     a5c:	4211      	tst	r1, r2
     a5e:	d10b      	bne.n	a78 <watchdog_reboot+0x54>
     a60:	4913      	ldr	r1, [pc, #76]	; (ab0 <watchdog_reboot+0x8c>)
     a62:	4814      	ldr	r0, [pc, #80]	; (ab4 <watchdog_reboot+0x90>)
     a64:	6809      	ldr	r1, [r1, #0]
     a66:	404a      	eors	r2, r1
     a68:	2103      	movs	r1, #3
     a6a:	400a      	ands	r2, r1
     a6c:	4912      	ldr	r1, [pc, #72]	; (ab8 <watchdog_reboot+0x94>)
     a6e:	600a      	str	r2, [r1, #0]
     a70:	2204      	movs	r2, #4
     a72:	6b81      	ldr	r1, [r0, #56]	; 0x38
     a74:	4211      	tst	r1, r2
     a76:	d0fc      	beq.n	a72 <watchdog_reboot+0x4e>
     a78:	220c      	movs	r2, #12
     a7a:	62da      	str	r2, [r3, #44]	; 0x2c
     a7c:	4b0f      	ldr	r3, [pc, #60]	; (abc <watchdog_reboot+0x98>)
     a7e:	32f5      	adds	r2, #245	; 0xf5
     a80:	32ff      	adds	r2, #255	; 0xff
     a82:	601a      	str	r2, [r3, #0]
     a84:	2280      	movs	r2, #128	; 0x80
     a86:	4b0e      	ldr	r3, [pc, #56]	; (ac0 <watchdog_reboot+0x9c>)
     a88:	05d2      	lsls	r2, r2, #23
     a8a:	601a      	str	r2, [r3, #0]
     a8c:	2201      	movs	r2, #1
     a8e:	4b0d      	ldr	r3, [pc, #52]	; (ac4 <watchdog_reboot+0xa0>)
     a90:	701a      	strb	r2, [r3, #0]
     a92:	bd10      	pop	{r4, pc}
     a94:	61d8      	str	r0, [r3, #28]
     a96:	e7da      	b.n	a4e <watchdog_reboot+0x2a>
     a98:	40010008 	andmi	r0, r1, r8
     a9c:	0001fffc 	strdeq	pc, [r1], -ip
     aa0:	4005b000 	andmi	fp, r5, r0
     aa4:	40058000 	andmi	r8, r5, r0
     aa8:	b007c0d3 	ldrdlt	ip, [r7], -r3
     aac:	4006c000 	andmi	ip, r6, r0
     ab0:	40008030 	andmi	r8, r0, r0, lsr r0
     ab4:	40008000 	andmi	r8, r0, r0
     ab8:	40009030 	andmi	r9, r0, r0, lsr r0
     abc:	4005a02c 	andmi	sl, r5, ip, lsr #32
     ac0:	4005a000 	andmi	sl, r5, r0
     ac4:	50100eb4 			; <UNDEFINED> instruction: 0x50100eb4

00000ac8 <_do_flash_erase_range>:
     ac8:	b570      	push	{r4, r5, r6, lr}
     aca:	0004      	movs	r4, r0
     acc:	1845      	adds	r5, r0, r1
     ace:	2000      	movs	r0, #0
     ad0:	42ac      	cmp	r4, r5
     ad2:	d201      	bcs.n	ad8 <_do_flash_erase_range+0x10>
     ad4:	2800      	cmp	r0, #0
     ad6:	d000      	beq.n	ada <_do_flash_erase_range+0x12>
     ad8:	bd70      	pop	{r4, r5, r6, pc}
     ada:	4b04      	ldr	r3, [pc, #16]	; (aec <_do_flash_erase_range+0x24>)
     adc:	0020      	movs	r0, r4
     ade:	681b      	ldr	r3, [r3, #0]
     ae0:	68db      	ldr	r3, [r3, #12]
     ae2:	4798      	blx	r3
     ae4:	2380      	movs	r3, #128	; 0x80
     ae6:	015b      	lsls	r3, r3, #5
     ae8:	18e4      	adds	r4, r4, r3
     aea:	e7f1      	b.n	ad0 <_do_flash_erase_range+0x8>
     aec:	50100dbc 			; <UNDEFINED> instruction: 0x50100dbc

00000af0 <is_address_ram.lto_priv.0>:
     af0:	22e0      	movs	r2, #224	; 0xe0
     af2:	0612      	lsls	r2, r2, #24
     af4:	1881      	adds	r1, r0, r2
     af6:	2284      	movs	r2, #132	; 0x84
     af8:	0003      	movs	r3, r0
     afa:	02d2      	lsls	r2, r2, #11
     afc:	2001      	movs	r0, #1
     afe:	4291      	cmp	r1, r2
     b00:	d907      	bls.n	b12 <is_address_ram.lto_priv.0+0x22>
     b02:	22eb      	movs	r2, #235	; 0xeb
     b04:	0612      	lsls	r2, r2, #24
     b06:	189b      	adds	r3, r3, r2
     b08:	2280      	movs	r2, #128	; 0x80
     b0a:	2000      	movs	r0, #0
     b0c:	01d2      	lsls	r2, r2, #7
     b0e:	429a      	cmp	r2, r3
     b10:	4140      	adcs	r0, r0
     b12:	4770      	bx	lr

00000b14 <_write_six_msb_hex_chars>:
     b14:	b530      	push	{r4, r5, lr}
     b16:	1d85      	adds	r5, r0, #6
     b18:	0f0c      	lsrs	r4, r1, #28
     b1a:	b2e2      	uxtb	r2, r4
     b1c:	0013      	movs	r3, r2
     b1e:	3337      	adds	r3, #55	; 0x37
     b20:	2c09      	cmp	r4, #9
     b22:	d800      	bhi.n	b26 <_write_six_msb_hex_chars+0x12>
     b24:	3b07      	subs	r3, #7
     b26:	7003      	strb	r3, [r0, #0]
     b28:	3001      	adds	r0, #1
     b2a:	0109      	lsls	r1, r1, #4
     b2c:	42a8      	cmp	r0, r5
     b2e:	d1f3      	bne.n	b18 <_write_six_msb_hex_chars+0x4>
     b30:	bd30      	pop	{r4, r5, pc}
     b32:	be00      	bkpt	0x0000

00000b34 <_picoboot_ack>:
     b34:	2200      	movs	r2, #0
     b36:	b510      	push	{r4, lr}
     b38:	4b05      	ldr	r3, [pc, #20]	; (b50 <_picoboot_ack+0x1c>)
     b3a:	4806      	ldr	r0, [pc, #24]	; (b54 <_picoboot_ack+0x20>)
     b3c:	725a      	strb	r2, [r3, #9]
     b3e:	7a1b      	ldrb	r3, [r3, #8]
     b40:	2b7f      	cmp	r3, #127	; 0x7f
     b42:	d800      	bhi.n	b46 <_picoboot_ack+0x12>
     b44:	4804      	ldr	r0, [pc, #16]	; (b58 <_picoboot_ack+0x24>)
     b46:	4a05      	ldr	r2, [pc, #20]	; (b5c <_picoboot_ack+0x28>)
     b48:	4905      	ldr	r1, [pc, #20]	; (b60 <_picoboot_ack+0x2c>)
     b4a:	f7ff fdfd 	bl	748 <usb_start_empty_transfer>
     b4e:	bd10      	pop	{r4, pc}
     b50:	50100ab8 			; <UNDEFINED> instruction: 0x50100ab8
     b54:	50100e58 	andspl	r0, r0, r8, asr lr
     b58:	50100e24 	andspl	r0, r0, r4, lsr #28
     b5c:	00000b7d 	andeq	r0, r0, sp, ror fp
     b60:	501008b0 			; <UNDEFINED> instruction: 0x501008b0

00000b64 <_atc_ack>:
     b64:	4b04      	ldr	r3, [pc, #16]	; (b78 <_atc_ack+0x14>)
     b66:	6a02      	ldr	r2, [r0, #32]
     b68:	6cdb      	ldr	r3, [r3, #76]	; 0x4c
     b6a:	b510      	push	{r4, lr}
     b6c:	429a      	cmp	r2, r3
     b6e:	d101      	bne.n	b74 <_atc_ack+0x10>
     b70:	f7ff ffe0 	bl	b34 <_picoboot_ack>
     b74:	bd10      	pop	{r4, pc}
     b76:	46c0      	nop			; (mov r8, r8)
     b78:	50100ac8 	andspl	r0, r0, r8, asr #21

00000b7c <_tf_picoboot_wait_command>:
     b7c:	b510      	push	{r4, lr}
     b7e:	4804      	ldr	r0, [pc, #16]	; (b90 <_tf_picoboot_wait_command+0x14>)
     b80:	1dc3      	adds	r3, r0, #7
     b82:	7fdb      	ldrb	r3, [r3, #31]
     b84:	2b00      	cmp	r3, #0
     b86:	d101      	bne.n	b8c <_tf_picoboot_wait_command+0x10>
     b88:	f7ff fdca 	bl	720 <usb_start_default_transfer_if_not_already_running_or_halted.part.0>
     b8c:	bd10      	pop	{r4, pc}
     b8e:	46c0      	nop			; (mov r8, r8)
     b90:	50100e58 	andspl	r0, r0, r8, asr lr

00000b94 <_get_descriptor_string>:
     b94:	2803      	cmp	r0, #3
     b96:	d900      	bls.n	b9a <_get_descriptor_string+0x6>
     b98:	2000      	movs	r0, #0
     b9a:	4b02      	ldr	r3, [pc, #8]	; (ba4 <_get_descriptor_string+0x10>)
     b9c:	0080      	lsls	r0, r0, #2
     b9e:	58c0      	ldr	r0, [r0, r3]
     ba0:	4770      	bx	lr
     ba2:	46c0      	nop			; (mov r8, r8)
     ba4:	00003ee0 	andeq	r3, r0, r0, ror #29

00000ba8 <flash_cs_force>:
     ba8:	4b02      	ldr	r3, [pc, #8]	; (bb4 <flash_cs_force+0xc>)
     baa:	0200      	lsls	r0, r0, #8
     bac:	6018      	str	r0, [r3, #0]
     bae:	681b      	ldr	r3, [r3, #0]
     bb0:	4770      	bx	lr
     bb2:	46c0      	nop			; (mov r8, r8)
     bb4:	4001800c 	andmi	r8, r1, ip

00000bb8 <flash_put_cmd_addr>:
     bb8:	b570      	push	{r4, r5, r6, lr}
     bba:	0004      	movs	r4, r0
     bbc:	2002      	movs	r0, #2
     bbe:	000d      	movs	r5, r1
     bc0:	f7ff fff2 	bl	ba8 <flash_cs_force>
     bc4:	22c0      	movs	r2, #192	; 0xc0
     bc6:	2304      	movs	r3, #4
     bc8:	0621      	lsls	r1, r4, #24
     bca:	4329      	orrs	r1, r5
     bcc:	0552      	lsls	r2, r2, #21
     bce:	0e08      	lsrs	r0, r1, #24
     bd0:	3b01      	subs	r3, #1
     bd2:	6610      	str	r0, [r2, #96]	; 0x60
     bd4:	0209      	lsls	r1, r1, #8
     bd6:	2b00      	cmp	r3, #0
     bd8:	d1f9      	bne.n	bce <flash_put_cmd_addr+0x16>
     bda:	bd70      	pop	{r4, r5, r6, pc}

00000bdc <execute_task.constprop.0>:
     bdc:	b5f7      	push	{r0, r1, r2, r4, r5, r6, r7, lr}
     bde:	3029      	adds	r0, #41	; 0x29
     be0:	7803      	ldrb	r3, [r0, #0]
     be2:	4c7a      	ldr	r4, [pc, #488]	; (dcc <execute_task.constprop.0+0x1f0>)
     be4:	2b00      	cmp	r3, #0
     be6:	d00a      	beq.n	bfe <execute_task.constprop.0+0x22>
     be8:	2301      	movs	r3, #1
     bea:	6063      	str	r3, [r4, #4]
     bec:	f3ef 8510 	mrs	r5, PRIMASK
     bf0:	b672      	cpsid	i
     bf2:	0020      	movs	r0, r4
     bf4:	68a3      	ldr	r3, [r4, #8]
     bf6:	4798      	blx	r3
     bf8:	f385 8810 	msr	PRIMASK, r5
     bfc:	bdf7      	pop	{r0, r1, r2, r4, r5, r6, r7, pc}
     bfe:	4b74      	ldr	r3, [pc, #464]	; (dd0 <execute_task.constprop.0+0x1f4>)
     c00:	2007      	movs	r0, #7
     c02:	781b      	ldrb	r3, [r3, #0]
     c04:	2b00      	cmp	r3, #0
     c06:	d109      	bne.n	c1c <execute_task.constprop.0+0x40>
     c08:	1d63      	adds	r3, r4, #5
     c0a:	7fde      	ldrb	r6, [r3, #31]
     c0c:	7fdb      	ldrb	r3, [r3, #31]
     c0e:	b25b      	sxtb	r3, r3
     c10:	2b00      	cmp	r3, #0
     c12:	da25      	bge.n	c60 <execute_task.constprop.0+0x84>
     c14:	68e5      	ldr	r5, [r4, #12]
     c16:	07eb      	lsls	r3, r5, #31
     c18:	d502      	bpl.n	c20 <execute_task.constprop.0+0x44>
     c1a:	2005      	movs	r0, #5
     c1c:	6060      	str	r0, [r4, #4]
     c1e:	e7e5      	b.n	bec <execute_task.constprop.0+0x10>
     c20:	0028      	movs	r0, r5
     c22:	f7ff ff65 	bl	af0 <is_address_ram.lto_priv.0>
     c26:	2800      	cmp	r0, #0
     c28:	d101      	bne.n	c2e <execute_task.constprop.0+0x52>
     c2a:	2004      	movs	r0, #4
     c2c:	e7f6      	b.n	c1c <execute_task.constprop.0+0x40>
     c2e:	23eb      	movs	r3, #235	; 0xeb
     c30:	2780      	movs	r7, #128	; 0x80
     c32:	061b      	lsls	r3, r3, #24
     c34:	18eb      	adds	r3, r5, r3
     c36:	01ff      	lsls	r7, r7, #7
     c38:	42bb      	cmp	r3, r7
     c3a:	d9f6      	bls.n	c2a <execute_task.constprop.0+0x4e>
     c3c:	0028      	movs	r0, r5
     c3e:	301c      	adds	r0, #28
     c40:	f7ff ff56 	bl	af0 <is_address_ram.lto_priv.0>
     c44:	2800      	cmp	r0, #0
     c46:	d0f0      	beq.n	c2a <execute_task.constprop.0+0x4e>
     c48:	4b62      	ldr	r3, [pc, #392]	; (dd4 <execute_task.constprop.0+0x1f8>)
     c4a:	18eb      	adds	r3, r5, r3
     c4c:	42bb      	cmp	r3, r7
     c4e:	d9ec      	bls.n	c2a <execute_task.constprop.0+0x4e>
     c50:	221c      	movs	r2, #28
     c52:	0028      	movs	r0, r5
     c54:	4960      	ldr	r1, [pc, #384]	; (dd8 <execute_task.constprop.0+0x1fc>)
     c56:	f001 fce1 	bl	261c <__memcpy>
     c5a:	4b60      	ldr	r3, [pc, #384]	; (ddc <execute_task.constprop.0+0x200>)
     c5c:	68e2      	ldr	r2, [r4, #12]
     c5e:	601a      	str	r2, [r3, #0]
     c60:	06f3      	lsls	r3, r6, #27
     c62:	d50e      	bpl.n	c82 <execute_task.constprop.0+0xa6>
     c64:	1da3      	adds	r3, r4, #6
     c66:	7fd9      	ldrb	r1, [r3, #31]
     c68:	000a      	movs	r2, r1
     c6a:	1e53      	subs	r3, r2, #1
     c6c:	419a      	sbcs	r2, r3
     c6e:	4b5c      	ldr	r3, [pc, #368]	; (de0 <execute_task.constprop.0+0x204>)
     c70:	b2d2      	uxtb	r2, r2
     c72:	3329      	adds	r3, #41	; 0x29
     c74:	701a      	strb	r2, [r3, #0]
     c76:	2902      	cmp	r1, #2
     c78:	d103      	bne.n	c82 <execute_task.constprop.0+0xa6>
     c7a:	2201      	movs	r2, #1
     c7c:	4b59      	ldr	r3, [pc, #356]	; (de4 <execute_task.constprop.0+0x208>)
     c7e:	3307      	adds	r3, #7
     c80:	77da      	strb	r2, [r3, #31]
     c82:	07f3      	lsls	r3, r6, #31
     c84:	d418      	bmi.n	cb8 <execute_task.constprop.0+0xdc>
     c86:	0673      	lsls	r3, r6, #25
     c88:	d41d      	bmi.n	cc6 <execute_task.constprop.0+0xea>
     c8a:	230a      	movs	r3, #10
     c8c:	421e      	tst	r6, r3
     c8e:	d00c      	beq.n	caa <execute_task.constprop.0+0xce>
     c90:	1de3      	adds	r3, r4, #7
     c92:	7fda      	ldrb	r2, [r3, #31]
     c94:	0023      	movs	r3, r4
     c96:	3308      	adds	r3, #8
     c98:	7fd9      	ldrb	r1, [r3, #31]
     c9a:	4b53      	ldr	r3, [pc, #332]	; (de8 <execute_task.constprop.0+0x20c>)
     c9c:	2900      	cmp	r1, #0
     c9e:	d003      	beq.n	ca8 <execute_task.constprop.0+0xcc>
     ca0:	7819      	ldrb	r1, [r3, #0]
     ca2:	2006      	movs	r0, #6
     ca4:	4291      	cmp	r1, r2
     ca6:	d1b9      	bne.n	c1c <execute_task.constprop.0+0x40>
     ca8:	701a      	strb	r2, [r3, #0]
     caa:	07b3      	lsls	r3, r6, #30
     cac:	d410      	bmi.n	cd0 <execute_task.constprop.0+0xf4>
     cae:	230c      	movs	r3, #12
     cb0:	421e      	tst	r6, r3
     cb2:	d125      	bne.n	d00 <execute_task.constprop.0+0x124>
     cb4:	2000      	movs	r0, #0
     cb6:	e7b1      	b.n	c1c <execute_task.constprop.0+0x40>
     cb8:	4b48      	ldr	r3, [pc, #288]	; (ddc <execute_task.constprop.0+0x200>)
     cba:	681b      	ldr	r3, [r3, #0]
     cbc:	689b      	ldr	r3, [r3, #8]
     cbe:	4798      	blx	r3
     cc0:	2800      	cmp	r0, #0
     cc2:	d0e0      	beq.n	c86 <execute_task.constprop.0+0xaa>
     cc4:	e7aa      	b.n	c1c <execute_task.constprop.0+0x40>
     cc6:	2301      	movs	r3, #1
     cc8:	68e2      	ldr	r2, [r4, #12]
     cca:	4313      	orrs	r3, r2
     ccc:	4798      	blx	r3
     cce:	e7dc      	b.n	c8a <execute_task.constprop.0+0xae>
     cd0:	6920      	ldr	r0, [r4, #16]
     cd2:	0503      	lsls	r3, r0, #20
     cd4:	d1a1      	bne.n	c1a <execute_task.constprop.0+0x3e>
     cd6:	6961      	ldr	r1, [r4, #20]
     cd8:	050b      	lsls	r3, r1, #20
     cda:	d19e      	bne.n	c1a <execute_task.constprop.0+0x3e>
     cdc:	25f0      	movs	r5, #240	; 0xf0
     cde:	2280      	movs	r2, #128	; 0x80
     ce0:	062d      	lsls	r5, r5, #24
     ce2:	1943      	adds	r3, r0, r5
     ce4:	0552      	lsls	r2, r2, #21
     ce6:	4293      	cmp	r3, r2
     ce8:	d89f      	bhi.n	c2a <execute_task.constprop.0+0x4e>
     cea:	1843      	adds	r3, r0, r1
     cec:	195b      	adds	r3, r3, r5
     cee:	4293      	cmp	r3, r2
     cf0:	d89b      	bhi.n	c2a <execute_task.constprop.0+0x4e>
     cf2:	4b3a      	ldr	r3, [pc, #232]	; (ddc <execute_task.constprop.0+0x200>)
     cf4:	681b      	ldr	r3, [r3, #0]
     cf6:	691b      	ldr	r3, [r3, #16]
     cf8:	4798      	blx	r3
     cfa:	2800      	cmp	r0, #0
     cfc:	d0d7      	beq.n	cae <execute_task.constprop.0+0xd2>
     cfe:	e78d      	b.n	c1c <execute_task.constprop.0+0x40>
     d00:	68e5      	ldr	r5, [r4, #12]
     d02:	0028      	movs	r0, r5
     d04:	f7ff fef4 	bl	af0 <is_address_ram.lto_priv.0>
     d08:	2800      	cmp	r0, #0
     d0a:	d005      	beq.n	d18 <execute_task.constprop.0+0x13c>
     d0c:	69e3      	ldr	r3, [r4, #28]
     d0e:	18e8      	adds	r0, r5, r3
     d10:	f7ff feee 	bl	af0 <is_address_ram.lto_priv.0>
     d14:	1e07      	subs	r7, r0, #0
     d16:	d11e      	bne.n	d56 <execute_task.constprop.0+0x17a>
     d18:	0733      	lsls	r3, r6, #28
     d1a:	d40a      	bmi.n	d32 <execute_task.constprop.0+0x156>
     d1c:	2280      	movs	r2, #128	; 0x80
     d1e:	0192      	lsls	r2, r2, #6
     d20:	4295      	cmp	r5, r2
     d22:	d206      	bcs.n	d32 <execute_task.constprop.0+0x156>
     d24:	69e3      	ldr	r3, [r4, #28]
     d26:	18eb      	adds	r3, r5, r3
     d28:	4293      	cmp	r3, r2
     d2a:	d300      	bcc.n	d2e <execute_task.constprop.0+0x152>
     d2c:	e77d      	b.n	c2a <execute_task.constprop.0+0x4e>
     d2e:	2701      	movs	r7, #1
     d30:	e011      	b.n	d56 <execute_task.constprop.0+0x17a>
     d32:	21f0      	movs	r1, #240	; 0xf0
     d34:	2280      	movs	r2, #128	; 0x80
     d36:	0609      	lsls	r1, r1, #24
     d38:	186b      	adds	r3, r5, r1
     d3a:	0552      	lsls	r2, r2, #21
     d3c:	4293      	cmp	r3, r2
     d3e:	d900      	bls.n	d42 <execute_task.constprop.0+0x166>
     d40:	e773      	b.n	c2a <execute_task.constprop.0+0x4e>
     d42:	69e3      	ldr	r3, [r4, #28]
     d44:	18eb      	adds	r3, r5, r3
     d46:	185b      	adds	r3, r3, r1
     d48:	4293      	cmp	r3, r2
     d4a:	d900      	bls.n	d4e <execute_task.constprop.0+0x172>
     d4c:	e76d      	b.n	c2a <execute_task.constprop.0+0x4e>
     d4e:	b2ef      	uxtb	r7, r5
     d50:	2f00      	cmp	r7, #0
     d52:	d000      	beq.n	d56 <execute_task.constprop.0+0x17a>
     d54:	e761      	b.n	c1a <execute_task.constprop.0+0x3e>
     d56:	0733      	lsls	r3, r6, #28
     d58:	d518      	bpl.n	d8c <execute_task.constprop.0+0x1b0>
     d5a:	4b20      	ldr	r3, [pc, #128]	; (ddc <execute_task.constprop.0+0x200>)
     d5c:	69a1      	ldr	r1, [r4, #24]
     d5e:	469c      	mov	ip, r3
     d60:	681b      	ldr	r3, [r3, #0]
     d62:	2f00      	cmp	r7, #0
     d64:	d023      	beq.n	dae <execute_task.constprop.0+0x1d2>
     d66:	69e2      	ldr	r2, [r4, #28]
     d68:	9501      	str	r5, [sp, #4]
     d6a:	42ab      	cmp	r3, r5
     d6c:	d900      	bls.n	d70 <execute_task.constprop.0+0x194>
     d6e:	9301      	str	r3, [sp, #4]
     d70:	331c      	adds	r3, #28
     d72:	18a8      	adds	r0, r5, r2
     d74:	4283      	cmp	r3, r0
     d76:	d200      	bcs.n	d7a <execute_task.constprop.0+0x19e>
     d78:	0018      	movs	r0, r3
     d7a:	9b01      	ldr	r3, [sp, #4]
     d7c:	4283      	cmp	r3, r0
     d7e:	d202      	bcs.n	d86 <execute_task.constprop.0+0x1aa>
     d80:	4660      	mov	r0, ip
     d82:	4b15      	ldr	r3, [pc, #84]	; (dd8 <execute_task.constprop.0+0x1fc>)
     d84:	6003      	str	r3, [r0, #0]
     d86:	0028      	movs	r0, r5
     d88:	f001 fc48 	bl	261c <__memcpy>
     d8c:	0773      	lsls	r3, r6, #29
     d8e:	d507      	bpl.n	da0 <execute_task.constprop.0+0x1c4>
     d90:	68e3      	ldr	r3, [r4, #12]
     d92:	69a0      	ldr	r0, [r4, #24]
     d94:	2f00      	cmp	r7, #0
     d96:	d010      	beq.n	dba <execute_task.constprop.0+0x1de>
     d98:	0019      	movs	r1, r3
     d9a:	69e2      	ldr	r2, [r4, #28]
     d9c:	f001 fc3e 	bl	261c <__memcpy>
     da0:	06b3      	lsls	r3, r6, #26
     da2:	d587      	bpl.n	cb4 <execute_task.constprop.0+0xd8>
     da4:	4b0d      	ldr	r3, [pc, #52]	; (ddc <execute_task.constprop.0+0x200>)
     da6:	681b      	ldr	r3, [r3, #0]
     da8:	685b      	ldr	r3, [r3, #4]
     daa:	4798      	blx	r3
     dac:	e736      	b.n	c1c <execute_task.constprop.0+0x40>
     dae:	0028      	movs	r0, r5
     db0:	695b      	ldr	r3, [r3, #20]
     db2:	4798      	blx	r3
     db4:	2800      	cmp	r0, #0
     db6:	d0e9      	beq.n	d8c <execute_task.constprop.0+0x1b0>
     db8:	e730      	b.n	c1c <execute_task.constprop.0+0x40>
     dba:	4a08      	ldr	r2, [pc, #32]	; (ddc <execute_task.constprop.0+0x200>)
     dbc:	0001      	movs	r1, r0
     dbe:	6812      	ldr	r2, [r2, #0]
     dc0:	0018      	movs	r0, r3
     dc2:	6992      	ldr	r2, [r2, #24]
     dc4:	4790      	blx	r2
     dc6:	2800      	cmp	r0, #0
     dc8:	d0ea      	beq.n	da0 <execute_task.constprop.0+0x1c4>
     dca:	e727      	b.n	c1c <execute_task.constprop.0+0x40>
     dcc:	50100d8c 	andspl	r0, r0, ip, lsl #27
     dd0:	50100eb4 			; <UNDEFINED> instruction: 0x50100eb4
     dd4:	eb00001c 	bl	e4c <usb_stream_packet_handler_complete+0x60>
     dd8:	00003ec4 	andeq	r3, r0, r4, asr #29
     ddc:	50100dbc 			; <UNDEFINED> instruction: 0x50100dbc
     de0:	50100fc0 	andspl	r0, r0, r0, asr #31
     de4:	50100a7c 	andspl	r0, r0, ip, ror sl
     de8:	50100a1c 	andspl	r0, r0, ip, lsl sl

00000dec <usb_stream_packet_handler_complete>:
     dec:	b5f8      	push	{r3, r4, r5, r6, r7, lr}
     dee:	6a46      	ldr	r6, [r0, #36]	; 0x24
     df0:	0004      	movs	r4, r0
     df2:	0033      	movs	r3, r6
     df4:	3329      	adds	r3, #41	; 0x29
     df6:	781b      	ldrb	r3, [r3, #0]
     df8:	0030      	movs	r0, r6
     dfa:	2b00      	cmp	r3, #0
     dfc:	d023      	beq.n	e46 <usb_stream_packet_handler_complete+0x5a>
     dfe:	f7ff fbe5 	bl	5cc <usb_current_packet_buffer>
     e02:	6963      	ldr	r3, [r4, #20]
     e04:	69e2      	ldr	r2, [r4, #28]
     e06:	001f      	movs	r7, r3
     e08:	0005      	movs	r5, r0
     e0a:	69a0      	ldr	r0, [r4, #24]
     e0c:	1e51      	subs	r1, r2, #1
     e0e:	3740      	adds	r7, #64	; 0x40
     e10:	2240      	movs	r2, #64	; 0x40
     e12:	4019      	ands	r1, r3
     e14:	4287      	cmp	r7, r0
     e16:	d900      	bls.n	e1a <usb_stream_packet_handler_complete+0x2e>
     e18:	1ac2      	subs	r2, r0, r3
     e1a:	712a      	strb	r2, [r5, #4]
     e1c:	6a23      	ldr	r3, [r4, #32]
     e1e:	6828      	ldr	r0, [r5, #0]
     e20:	1859      	adds	r1, r3, r1
     e22:	f001 fbfb 	bl	261c <__memcpy>
     e26:	792b      	ldrb	r3, [r5, #4]
     e28:	6962      	ldr	r2, [r4, #20]
     e2a:	0020      	movs	r0, r4
     e2c:	18d3      	adds	r3, r2, r3
     e2e:	6163      	str	r3, [r4, #20]
     e30:	6aa3      	ldr	r3, [r4, #40]	; 0x28
     e32:	681b      	ldr	r3, [r3, #0]
     e34:	4798      	blx	r3
     e36:	4b06      	ldr	r3, [pc, #24]	; (e50 <usb_stream_packet_handler_complete+0x64>)
     e38:	0030      	movs	r0, r6
     e3a:	681a      	ldr	r2, [r3, #0]
     e3c:	4b05      	ldr	r3, [pc, #20]	; (e54 <usb_stream_packet_handler_complete+0x68>)
     e3e:	601a      	str	r2, [r3, #0]
     e40:	f7ff fd46 	bl	8d0 <usb_packet_done>
     e44:	bdf8      	pop	{r3, r4, r5, r6, r7, pc}
     e46:	f7ff fbc1 	bl	5cc <usb_current_packet_buffer>
     e4a:	0005      	movs	r5, r0
     e4c:	e7eb      	b.n	e26 <usb_stream_packet_handler_complete+0x3a>
     e4e:	46c0      	nop			; (mov r8, r8)
     e50:	50100f64 	andspl	r0, r0, r4, ror #30
     e54:	d0000018 	andle	r0, r0, r8, lsl r0

00000e58 <_atc_chunk_task_done>:
     e58:	b570      	push	{r4, r5, r6, lr}
     e5a:	4c0c      	ldr	r4, [pc, #48]	; (e8c <_atc_chunk_task_done+0x34>)
     e5c:	6a03      	ldr	r3, [r0, #32]
     e5e:	6ce2      	ldr	r2, [r4, #76]	; 0x4c
     e60:	0005      	movs	r5, r0
     e62:	4293      	cmp	r3, r2
     e64:	d111      	bne.n	e8a <_atc_chunk_task_done+0x32>
     e66:	6843      	ldr	r3, [r0, #4]
     e68:	4e09      	ldr	r6, [pc, #36]	; (e90 <_atc_chunk_task_done+0x38>)
     e6a:	6073      	str	r3, [r6, #4]
     e6c:	2b00      	cmp	r3, #0
     e6e:	d005      	beq.n	e7c <_atc_chunk_task_done+0x24>
     e70:	2102      	movs	r1, #2
     e72:	6a60      	ldr	r0, [r4, #36]	; 0x24
     e74:	f7ff fcca 	bl	80c <_usb_stall_endpoint>
     e78:	2300      	movs	r3, #0
     e7a:	7273      	strb	r3, [r6, #9]
     e7c:	69eb      	ldr	r3, [r5, #28]
     e7e:	6ba2      	ldr	r2, [r4, #56]	; 0x38
     e80:	0020      	movs	r0, r4
     e82:	18d3      	adds	r3, r2, r3
     e84:	63a3      	str	r3, [r4, #56]	; 0x38
     e86:	f7ff ffb1 	bl	dec <usb_stream_packet_handler_complete>
     e8a:	bd70      	pop	{r4, r5, r6, pc}
     e8c:	50100ac8 	andspl	r0, r0, r8, asr #21
     e90:	50100ab8 			; <UNDEFINED> instruction: 0x50100ab8

00000e94 <_usb_handle_set_config>:
     e94:	b570      	push	{r4, r5, r6, lr}
     e96:	0004      	movs	r4, r0
     e98:	2601      	movs	r6, #1
     e9a:	4d0a      	ldr	r5, [pc, #40]	; (ec4 <_usb_handle_set_config+0x30>)
     e9c:	7568      	strb	r0, [r5, #21]
     e9e:	4b0a      	ldr	r3, [pc, #40]	; (ec8 <_usb_handle_set_config+0x34>)
     ea0:	00b2      	lsls	r2, r6, #2
     ea2:	58d0      	ldr	r0, [r2, r3]
     ea4:	2800      	cmp	r0, #0
     ea6:	d002      	beq.n	eae <_usb_handle_set_config+0x1a>
     ea8:	2101      	movs	r1, #1
     eaa:	f7ff fd93 	bl	9d4 <_usb_reset_endpoint>
     eae:	3601      	adds	r6, #1
     eb0:	2e05      	cmp	r6, #5
     eb2:	d1f4      	bne.n	e9e <_usb_handle_set_config+0xa>
     eb4:	1e60      	subs	r0, r4, #1
     eb6:	4184      	sbcs	r4, r0
     eb8:	686b      	ldr	r3, [r5, #4]
     eba:	0028      	movs	r0, r5
     ebc:	b2e1      	uxtb	r1, r4
     ebe:	4798      	blx	r3
     ec0:	bd70      	pop	{r4, r5, r6, pc}
     ec2:	46c0      	nop			; (mov r8, r8)
     ec4:	501009ec 	andspl	r0, r0, ip, ror #19
     ec8:	50100a08 	andspl	r0, r0, r8, lsl #20

00000ecc <_usb_handle_bus_reset>:
     ecc:	b510      	push	{r4, lr}
     ece:	2000      	movs	r0, #0
     ed0:	f7ff ffe0 	bl	e94 <_usb_handle_set_config>
     ed4:	2300      	movs	r3, #0
     ed6:	4a05      	ldr	r2, [pc, #20]	; (eec <_usb_handle_bus_reset+0x20>)
     ed8:	7513      	strb	r3, [r2, #20]
     eda:	4a05      	ldr	r2, [pc, #20]	; (ef0 <_usb_handle_bus_reset+0x24>)
     edc:	6013      	str	r3, [r2, #0]
     ede:	2201      	movs	r2, #1
     ee0:	4b04      	ldr	r3, [pc, #16]	; (ef4 <_usb_handle_bus_reset+0x28>)
     ee2:	4252      	negs	r2, r2
     ee4:	659a      	str	r2, [r3, #88]	; 0x58
     ee6:	651a      	str	r2, [r3, #80]	; 0x50
     ee8:	bd10      	pop	{r4, pc}
     eea:	46c0      	nop			; (mov r8, r8)
     eec:	501009ec 	andspl	r0, r0, ip, ror #19
     ef0:	50110000 	andspl	r0, r1, r0
     ef4:	50113000 	andspl	r3, r1, r0

00000ef8 <gpio_setup.part.0>:
     ef8:	2220      	movs	r2, #32
     efa:	4b0c      	ldr	r3, [pc, #48]	; (f2c <gpio_setup.part.0+0x34>)
     efc:	b510      	push	{r4, lr}
     efe:	601a      	str	r2, [r3, #0]
     f00:	4b0b      	ldr	r3, [pc, #44]	; (f30 <gpio_setup.part.0+0x38>)
     f02:	6818      	ldr	r0, [r3, #0]
     f04:	23d0      	movs	r3, #208	; 0xd0
     f06:	061b      	lsls	r3, r3, #24
     f08:	6158      	str	r0, [r3, #20]
     f0a:	6258      	str	r0, [r3, #36]	; 0x24
     f0c:	f7ff fa3f 	bl	38e <ctz32>
     f10:	4b08      	ldr	r3, [pc, #32]	; (f34 <gpio_setup.part.0+0x3c>)
     f12:	18c2      	adds	r2, r0, r3
     f14:	23c0      	movs	r3, #192	; 0xc0
     f16:	0092      	lsls	r2, r2, #2
     f18:	019b      	lsls	r3, r3, #6
     f1a:	4313      	orrs	r3, r2
     f1c:	2280      	movs	r2, #128	; 0x80
     f1e:	601a      	str	r2, [r3, #0]
     f20:	4b05      	ldr	r3, [pc, #20]	; (f38 <gpio_setup.part.0+0x40>)
     f22:	18c0      	adds	r0, r0, r3
     f24:	2305      	movs	r3, #5
     f26:	00c0      	lsls	r0, r0, #3
     f28:	6043      	str	r3, [r0, #4]
     f2a:	bd10      	pop	{r4, pc}
     f2c:	4000f000 	andmi	pc, r0, r0
     f30:	50100f64 	andspl	r0, r0, r4, ror #30
     f34:	10007001 	andne	r7, r0, r1
     f38:	08002800 	stmdaeq	r0, {fp, sp}

00000f3c <memset0>:
     f3c:	b510      	push	{r4, lr}
     f3e:	000a      	movs	r2, r1
     f40:	2100      	movs	r1, #0
     f42:	f001 fbb9 	bl	26b8 <__memset>
     f46:	bd10      	pop	{r4, pc}

00000f48 <_msc_reset>:
     f48:	4b11      	ldr	r3, [pc, #68]	; (f90 <_msc_reset+0x48>)
     f4a:	b570      	push	{r4, r5, r6, lr}
     f4c:	781a      	ldrb	r2, [r3, #0]
     f4e:	4c11      	ldr	r4, [pc, #68]	; (f94 <_msc_reset+0x4c>)
     f50:	2a00      	cmp	r2, #0
     f52:	d107      	bne.n	f64 <_msc_reset+0x1c>
     f54:	4a10      	ldr	r2, [pc, #64]	; (f98 <_msc_reset+0x50>)
     f56:	4911      	ldr	r1, [pc, #68]	; (f9c <_msc_reset+0x54>)
     f58:	6322      	str	r2, [r4, #48]	; 0x30
     f5a:	6011      	str	r1, [r2, #0]
     f5c:	4a10      	ldr	r2, [pc, #64]	; (fa0 <_msc_reset+0x58>)
     f5e:	6122      	str	r2, [r4, #16]
     f60:	2201      	movs	r2, #1
     f62:	701a      	strb	r2, [r3, #0]
     f64:	4d0f      	ldr	r5, [pc, #60]	; (fa4 <_msc_reset+0x5c>)
     f66:	2128      	movs	r1, #40	; 0x28
     f68:	0028      	movs	r0, r5
     f6a:	f7ff ffe7 	bl	f3c <memset0>
     f6e:	2370      	movs	r3, #112	; 0x70
     f70:	736b      	strb	r3, [r5, #13]
     f72:	3b66      	subs	r3, #102	; 0x66
     f74:	752b      	strb	r3, [r5, #20]
     f76:	2500      	movs	r5, #0
     f78:	4b0b      	ldr	r3, [pc, #44]	; (fa8 <_msc_reset+0x60>)
     f7a:	0029      	movs	r1, r5
     f7c:	0020      	movs	r0, r4
     f7e:	611d      	str	r5, [r3, #16]
     f80:	f7ff fd28 	bl	9d4 <_usb_reset_endpoint>
     f84:	0020      	movs	r0, r4
     f86:	0029      	movs	r1, r5
     f88:	302c      	adds	r0, #44	; 0x2c
     f8a:	f7ff fd23 	bl	9d4 <_usb_reset_endpoint>
     f8e:	bd70      	pop	{r4, r5, r6, pc}
     f90:	50100e20 	andspl	r0, r0, r0, lsr #28
     f94:	50100dc0 	andspl	r0, r0, r0, asr #27
     f98:	50100a38 	andspl	r0, r0, r8, lsr sl
     f9c:	00003dd2 	ldrdeq	r3, [r0], -r2
     fa0:	00001445 	andeq	r1, r0, r5, asr #8
     fa4:	50100a7c 	andspl	r0, r0, ip, ror sl
     fa8:	50100d3c 	andspl	r0, r0, ip, lsr sp

00000fac <msc_setup_request_handler>:
     fac:	2260      	movs	r2, #96	; 0x60
     fae:	780b      	ldrb	r3, [r1, #0]
     fb0:	b510      	push	{r4, lr}
     fb2:	401a      	ands	r2, r3
     fb4:	2400      	movs	r4, #0
     fb6:	2a20      	cmp	r2, #32
     fb8:	d114      	bne.n	fe4 <msc_setup_request_handler+0x38>
     fba:	b25b      	sxtb	r3, r3
     fbc:	784a      	ldrb	r2, [r1, #1]
     fbe:	42a3      	cmp	r3, r4
     fc0:	da12      	bge.n	fe8 <msc_setup_request_handler+0x3c>
     fc2:	2afe      	cmp	r2, #254	; 0xfe
     fc4:	d10e      	bne.n	fe4 <msc_setup_request_handler+0x38>
     fc6:	884b      	ldrh	r3, [r1, #2]
     fc8:	42a3      	cmp	r3, r4
     fca:	d10b      	bne.n	fe4 <msc_setup_request_handler+0x38>
     fcc:	88cb      	ldrh	r3, [r1, #6]
     fce:	42a3      	cmp	r3, r4
     fd0:	d008      	beq.n	fe4 <msc_setup_request_handler+0x38>
     fd2:	4813      	ldr	r0, [pc, #76]	; (1020 <msc_setup_request_handler+0x74>)
     fd4:	f7ff fafa 	bl	5cc <usb_current_packet_buffer>
     fd8:	6803      	ldr	r3, [r0, #0]
     fda:	701c      	strb	r4, [r3, #0]
     fdc:	3401      	adds	r4, #1
     fde:	7104      	strb	r4, [r0, #4]
     fe0:	f7ff fbe0 	bl	7a4 <usb_start_single_buffer_control_in_transfer>
     fe4:	0020      	movs	r0, r4
     fe6:	bd10      	pop	{r4, pc}
     fe8:	2aff      	cmp	r2, #255	; 0xff
     fea:	d1fb      	bne.n	fe4 <msc_setup_request_handler+0x38>
     fec:	884b      	ldrh	r3, [r1, #2]
     fee:	2b00      	cmp	r3, #0
     ff0:	d1f8      	bne.n	fe4 <msc_setup_request_handler+0x38>
     ff2:	88ca      	ldrh	r2, [r1, #6]
     ff4:	001c      	movs	r4, r3
     ff6:	2a00      	cmp	r2, #0
     ff8:	d1f4      	bne.n	fe4 <msc_setup_request_handler+0x38>
     ffa:	4b0a      	ldr	r3, [pc, #40]	; (1024 <msc_setup_request_handler+0x78>)
     ffc:	1dda      	adds	r2, r3, #7
     ffe:	7fd1      	ldrb	r1, [r2, #31]
    1000:	2903      	cmp	r1, #3
    1002:	d101      	bne.n	1008 <msc_setup_request_handler+0x5c>
    1004:	3901      	subs	r1, #1
    1006:	77d1      	strb	r1, [r2, #31]
    1008:	3352      	adds	r3, #82	; 0x52
    100a:	781a      	ldrb	r2, [r3, #0]
    100c:	2a03      	cmp	r2, #3
    100e:	d101      	bne.n	1014 <msc_setup_request_handler+0x68>
    1010:	3a01      	subs	r2, #1
    1012:	701a      	strb	r2, [r3, #0]
    1014:	f7ff ff98 	bl	f48 <_msc_reset>
    1018:	2401      	movs	r4, #1
    101a:	f7ff fbab 	bl	774 <usb_start_empty_control_in_transfer_null_completion>
    101e:	e7e1      	b.n	fe4 <msc_setup_request_handler+0x38>
    1020:	50100f68 	andspl	r0, r0, r8, ror #30
    1024:	50100dc0 	andspl	r0, r0, r0, asr #27

00001028 <vd_read_block>:
    1028:	b5f7      	push	{r0, r1, r2, r4, r5, r6, r7, lr}
    102a:	000d      	movs	r5, r1
    102c:	2180      	movs	r1, #128	; 0x80
    102e:	0010      	movs	r0, r2
    1030:	0089      	lsls	r1, r1, #2
    1032:	0014      	movs	r4, r2
    1034:	f7ff ff82 	bl	f3c <memset0>
    1038:	2d00      	cmp	r5, #0
    103a:	d120      	bne.n	107e <vd_read_block+0x56>
    103c:	0020      	movs	r0, r4
    103e:	30c3      	adds	r0, #195	; 0xc3
    1040:	220b      	movs	r2, #11
    1042:	494f      	ldr	r1, [pc, #316]	; (1180 <vd_read_block+0x158>)
    1044:	30ff      	adds	r0, #255	; 0xff
    1046:	f001 fae9 	bl	261c <__memcpy>
    104a:	23ff      	movs	r3, #255	; 0xff
    104c:	2255      	movs	r2, #85	; 0x55
    104e:	005b      	lsls	r3, r3, #1
    1050:	54e2      	strb	r2, [r4, r3]
    1052:	4b4c      	ldr	r3, [pc, #304]	; (1184 <vd_read_block+0x15c>)
    1054:	1892      	adds	r2, r2, r2
    1056:	54e2      	strb	r2, [r4, r3]
    1058:	4b4b      	ldr	r3, [pc, #300]	; (1188 <vd_read_block+0x160>)
    105a:	791a      	ldrb	r2, [r3, #4]
    105c:	2a00      	cmp	r2, #0
    105e:	d104      	bne.n	106a <vd_read_block+0x42>
    1060:	4a4a      	ldr	r2, [pc, #296]	; (118c <vd_read_block+0x164>)
    1062:	6a92      	ldr	r2, [r2, #40]	; 0x28
    1064:	601a      	str	r2, [r3, #0]
    1066:	2201      	movs	r2, #1
    1068:	711a      	strb	r2, [r3, #4]
    106a:	0020      	movs	r0, r4
    106c:	681b      	ldr	r3, [r3, #0]
    106e:	30b9      	adds	r0, #185	; 0xb9
    1070:	9301      	str	r3, [sp, #4]
    1072:	30ff      	adds	r0, #255	; 0xff
    1074:	2204      	movs	r2, #4
    1076:	a901      	add	r1, sp, #4
    1078:	f001 fad0 	bl	261c <__memcpy>
    107c:	e023      	b.n	10c6 <vd_read_block+0x9e>
    107e:	2d01      	cmp	r5, #1
    1080:	d111      	bne.n	10a6 <vd_read_block+0x7e>
    1082:	4b41      	ldr	r3, [pc, #260]	; (1188 <vd_read_block+0x160>)
    1084:	791a      	ldrb	r2, [r3, #4]
    1086:	2a00      	cmp	r2, #0
    1088:	d103      	bne.n	1092 <vd_read_block+0x6a>
    108a:	4a40      	ldr	r2, [pc, #256]	; (118c <vd_read_block+0x164>)
    108c:	6a92      	ldr	r2, [r2, #40]	; 0x28
    108e:	711d      	strb	r5, [r3, #4]
    1090:	601a      	str	r2, [r3, #0]
    1092:	681b      	ldr	r3, [r3, #0]
    1094:	2240      	movs	r2, #64	; 0x40
    1096:	0020      	movs	r0, r4
    1098:	493d      	ldr	r1, [pc, #244]	; (1190 <vd_read_block+0x168>)
    109a:	9301      	str	r3, [sp, #4]
    109c:	f001 fabe 	bl	261c <__memcpy>
    10a0:	0020      	movs	r0, r4
    10a2:	3027      	adds	r0, #39	; 0x27
    10a4:	e7e6      	b.n	1074 <vd_read_block+0x4c>
    10a6:	2281      	movs	r2, #129	; 0x81
    10a8:	1eab      	subs	r3, r5, #2
    10aa:	0052      	lsls	r2, r2, #1
    10ac:	4293      	cmp	r3, r2
    10ae:	d20c      	bcs.n	10ca <vd_read_block+0xa2>
    10b0:	2b80      	cmp	r3, #128	; 0x80
    10b2:	d900      	bls.n	10b6 <vd_read_block+0x8e>
    10b4:	3b81      	subs	r3, #129	; 0x81
    10b6:	2b00      	cmp	r3, #0
    10b8:	d105      	bne.n	10c6 <vd_read_block+0x9e>
    10ba:	3b08      	subs	r3, #8
    10bc:	8023      	strh	r3, [r4, #0]
    10be:	3307      	adds	r3, #7
    10c0:	8063      	strh	r3, [r4, #2]
    10c2:	80a3      	strh	r3, [r4, #4]
    10c4:	80e3      	strh	r3, [r4, #6]
    10c6:	2000      	movs	r0, #0
    10c8:	bdfe      	pop	{r1, r2, r3, r4, r5, r6, r7, pc}
    10ca:	1f6b      	subs	r3, r5, #5
    10cc:	3bff      	subs	r3, #255	; 0xff
    10ce:	2b1f      	cmp	r3, #31
    10d0:	d839      	bhi.n	1146 <vd_read_block+0x11e>
    10d2:	2b00      	cmp	r3, #0
    10d4:	d1f7      	bne.n	10c6 <vd_read_block+0x9e>
    10d6:	492e      	ldr	r1, [pc, #184]	; (1190 <vd_read_block+0x168>)
    10d8:	220b      	movs	r2, #11
    10da:	312b      	adds	r1, #43	; 0x2b
    10dc:	0020      	movs	r0, r4
    10de:	f001 fa9d 	bl	261c <__memcpy>
    10e2:	2328      	movs	r3, #40	; 0x28
    10e4:	72e3      	strb	r3, [r4, #11]
    10e6:	0023      	movs	r3, r4
    10e8:	2264      	movs	r2, #100	; 0x64
    10ea:	0020      	movs	r0, r4
    10ec:	4e29      	ldr	r6, [pc, #164]	; (1194 <vd_read_block+0x16c>)
    10ee:	4d2a      	ldr	r5, [pc, #168]	; (1198 <vd_read_block+0x170>)
    10f0:	332d      	adds	r3, #45	; 0x2d
    10f2:	701a      	strb	r2, [r3, #0]
    10f4:	4929      	ldr	r1, [pc, #164]	; (119c <vd_read_block+0x174>)
    10f6:	3a59      	subs	r2, #89	; 0x59
    10f8:	85e6      	strh	r6, [r4, #46]	; 0x2e
    10fa:	8625      	strh	r5, [r4, #48]	; 0x30
    10fc:	86e6      	strh	r6, [r4, #54]	; 0x36
    10fe:	8725      	strh	r5, [r4, #56]	; 0x38
    1100:	3020      	adds	r0, #32
    1102:	f001 fa8b 	bl	261c <__memcpy>
    1106:	0023      	movs	r3, r4
    1108:	2121      	movs	r1, #33	; 0x21
    110a:	332b      	adds	r3, #43	; 0x2b
    110c:	7019      	strb	r1, [r3, #0]
    110e:	2302      	movs	r3, #2
    1110:	8763      	strh	r3, [r4, #58]	; 0x3a
    1112:	33ef      	adds	r3, #239	; 0xef
    1114:	63e3      	str	r3, [r4, #60]	; 0x3c
    1116:	0027      	movs	r7, r4
    1118:	0023      	movs	r3, r4
    111a:	2264      	movs	r2, #100	; 0x64
    111c:	334e      	adds	r3, #78	; 0x4e
    111e:	3740      	adds	r7, #64	; 0x40
    1120:	737a      	strb	r2, [r7, #13]
    1122:	491f      	ldr	r1, [pc, #124]	; (11a0 <vd_read_block+0x178>)
    1124:	801e      	strh	r6, [r3, #0]
    1126:	805d      	strh	r5, [r3, #2]
    1128:	811e      	strh	r6, [r3, #8]
    112a:	815d      	strh	r5, [r3, #10]
    112c:	3a59      	subs	r2, #89	; 0x59
    112e:	0038      	movs	r0, r7
    1130:	f001 fa74 	bl	261c <__memcpy>
    1134:	0023      	movs	r3, r4
    1136:	2121      	movs	r1, #33	; 0x21
    1138:	2203      	movs	r2, #3
    113a:	335a      	adds	r3, #90	; 0x5a
    113c:	72f9      	strb	r1, [r7, #11]
    113e:	801a      	strh	r2, [r3, #0]
    1140:	233e      	movs	r3, #62	; 0x3e
    1142:	65e3      	str	r3, [r4, #92]	; 0x5c
    1144:	e7bf      	b.n	10c6 <vd_read_block+0x9e>
    1146:	3d25      	subs	r5, #37	; 0x25
    1148:	3dff      	subs	r5, #255	; 0xff
    114a:	076b      	lsls	r3, r5, #29
    114c:	d1bb      	bne.n	10c6 <vd_read_block+0x9e>
    114e:	08ed      	lsrs	r5, r5, #3
    1150:	d110      	bne.n	1174 <vd_read_block+0x14c>
    1152:	0022      	movs	r2, r4
    1154:	219f      	movs	r1, #159	; 0x9f
    1156:	4813      	ldr	r0, [pc, #76]	; (11a4 <vd_read_block+0x17c>)
    1158:	f001 fa41 	bl	25de <poor_mans_text_decompress>
    115c:	0020      	movs	r0, r4
    115e:	4d12      	ldr	r5, [pc, #72]	; (11a8 <vd_read_block+0x180>)
    1160:	220c      	movs	r2, #12
    1162:	0029      	movs	r1, r5
    1164:	3062      	adds	r0, #98	; 0x62
    1166:	f001 fa59 	bl	261c <__memcpy>
    116a:	0020      	movs	r0, r4
    116c:	220c      	movs	r2, #12
    116e:	0029      	movs	r1, r5
    1170:	30c2      	adds	r0, #194	; 0xc2
    1172:	e781      	b.n	1078 <vd_read_block+0x50>
    1174:	2d01      	cmp	r5, #1
    1176:	d1a6      	bne.n	10c6 <vd_read_block+0x9e>
    1178:	223e      	movs	r2, #62	; 0x3e
    117a:	0020      	movs	r0, r4
    117c:	490b      	ldr	r1, [pc, #44]	; (11ac <vd_read_block+0x184>)
    117e:	e77b      	b.n	1078 <vd_read_block+0x50>
    1180:	00003df0 	strdeq	r3, [r0], -r0
    1184:	000001ff 	strdeq	r0, [r0], -pc	; <UNPREDICTABLE>
    1188:	50100db4 			; <UNDEFINED> instruction: 0x50100db4
    118c:	40054000 	andmi	r4, r5, r0
    1190:	00003e64 	andeq	r3, r0, r4, ror #28
    1194:	ffff8299 			; <UNDEFINED> instruction: 0xffff8299
    1198:	00003925 	andeq	r3, r0, r5, lsr #18
    119c:	00003da4 	andeq	r3, r0, r4, lsr #27
    11a0:	00003db0 			; <UNDEFINED> instruction: 0x00003db0
    11a4:	00003ff6 	strdeq	r3, [r0], -r6
    11a8:	50100eb5 			; <UNDEFINED> instruction: 0x50100eb5
    11ac:	00003ef0 	strdeq	r3, [r0], -r0

000011b0 <vd_write_block>:
    11b0:	b5f0      	push	{r4, r5, r6, r7, lr}
    11b2:	4b85      	ldr	r3, [pc, #532]	; (13c8 <vd_write_block+0x218>)
    11b4:	0016      	movs	r6, r2
    11b6:	6812      	ldr	r2, [r2, #0]
    11b8:	b085      	sub	sp, #20
    11ba:	9003      	str	r0, [sp, #12]
    11bc:	429a      	cmp	r2, r3
    11be:	d002      	beq.n	11c6 <vd_write_block+0x16>
    11c0:	2000      	movs	r0, #0
    11c2:	b005      	add	sp, #20
    11c4:	bdf0      	pop	{r4, r5, r6, r7, pc}
    11c6:	4b81      	ldr	r3, [pc, #516]	; (13cc <vd_write_block+0x21c>)
    11c8:	6872      	ldr	r2, [r6, #4]
    11ca:	429a      	cmp	r2, r3
    11cc:	d1f8      	bne.n	11c0 <vd_write_block+0x10>
    11ce:	22fe      	movs	r2, #254	; 0xfe
    11d0:	0052      	lsls	r2, r2, #1
    11d2:	4b7f      	ldr	r3, [pc, #508]	; (13d0 <vd_write_block+0x220>)
    11d4:	58b2      	ldr	r2, [r6, r2]
    11d6:	429a      	cmp	r2, r3
    11d8:	d1f2      	bne.n	11c0 <vd_write_block+0x10>
    11da:	68b3      	ldr	r3, [r6, #8]
    11dc:	049a      	lsls	r2, r3, #18
    11de:	d5ef      	bpl.n	11c0 <vd_write_block+0x10>
    11e0:	4a7c      	ldr	r2, [pc, #496]	; (13d4 <vd_write_block+0x224>)
    11e2:	69f1      	ldr	r1, [r6, #28]
    11e4:	4291      	cmp	r1, r2
    11e6:	d1eb      	bne.n	11c0 <vd_write_block+0x10>
    11e8:	2201      	movs	r2, #1
    11ea:	001d      	movs	r5, r3
    11ec:	4015      	ands	r5, r2
    11ee:	4213      	tst	r3, r2
    11f0:	d1e6      	bne.n	11c0 <vd_write_block+0x10>
    11f2:	2380      	movs	r3, #128	; 0x80
    11f4:	6932      	ldr	r2, [r6, #16]
    11f6:	005b      	lsls	r3, r3, #1
    11f8:	429a      	cmp	r2, r3
    11fa:	d1e1      	bne.n	11c0 <vd_write_block+0x10>
    11fc:	68f7      	ldr	r7, [r6, #12]
    11fe:	0038      	movs	r0, r7
    1200:	f7ff fc76 	bl	af0 <is_address_ram.lto_priv.0>
    1204:	2800      	cmp	r0, #0
    1206:	d004      	beq.n	1212 <vd_write_block+0x62>
    1208:	0038      	movs	r0, r7
    120a:	30ff      	adds	r0, #255	; 0xff
    120c:	f7ff fc70 	bl	af0 <is_address_ram.lto_priv.0>
    1210:	0005      	movs	r5, r0
    1212:	69b3      	ldr	r3, [r6, #24]
    1214:	4c70      	ldr	r4, [pc, #448]	; (13d8 <vd_write_block+0x228>)
    1216:	2b00      	cmp	r3, #0
    1218:	d009      	beq.n	122e <vd_write_block+0x7e>
    121a:	22f0      	movs	r2, #240	; 0xf0
    121c:	0612      	lsls	r2, r2, #24
    121e:	18ba      	adds	r2, r7, r2
    1220:	9201      	str	r2, [sp, #4]
    1222:	2d00      	cmp	r5, #0
    1224:	d106      	bne.n	1234 <vd_write_block+0x84>
    1226:	0011      	movs	r1, r2
    1228:	4a6c      	ldr	r2, [pc, #432]	; (13dc <vd_write_block+0x22c>)
    122a:	4291      	cmp	r1, r2
    122c:	d907      	bls.n	123e <vd_write_block+0x8e>
    122e:	2000      	movs	r0, #0
    1230:	6120      	str	r0, [r4, #16]
    1232:	e7c6      	b.n	11c2 <vd_write_block+0x12>
    1234:	9a01      	ldr	r2, [sp, #4]
    1236:	0011      	movs	r1, r2
    1238:	4a68      	ldr	r2, [pc, #416]	; (13dc <vd_write_block+0x22c>)
    123a:	4291      	cmp	r1, r2
    123c:	d802      	bhi.n	1244 <vd_write_block+0x94>
    123e:	b2ff      	uxtb	r7, r7
    1240:	2f00      	cmp	r7, #0
    1242:	d1f4      	bne.n	122e <vd_write_block+0x7e>
    1244:	4a66      	ldr	r2, [pc, #408]	; (13e0 <vd_write_block+0x230>)
    1246:	3229      	adds	r2, #41	; 0x29
    1248:	7812      	ldrb	r2, [r2, #0]
    124a:	2a00      	cmp	r2, #0
    124c:	d1ef      	bne.n	122e <vd_write_block+0x7e>
    124e:	3201      	adds	r2, #1
    1250:	402a      	ands	r2, r5
    1252:	9202      	str	r2, [sp, #8]
    1254:	6922      	ldr	r2, [r4, #16]
    1256:	2708      	movs	r7, #8
    1258:	4293      	cmp	r3, r2
    125a:	d035      	beq.n	12c8 <vd_write_block+0x118>
    125c:	0020      	movs	r0, r4
    125e:	2150      	movs	r1, #80	; 0x50
    1260:	f7ff fe6c 	bl	f3c <memset0>
    1264:	0023      	movs	r3, r4
    1266:	9a02      	ldr	r2, [sp, #8]
    1268:	334c      	adds	r3, #76	; 0x4c
    126a:	485e      	ldr	r0, [pc, #376]	; (13e4 <vd_write_block+0x234>)
    126c:	701a      	strb	r2, [r3, #0]
    126e:	2d00      	cmp	r5, #0
    1270:	d101      	bne.n	1276 <vd_write_block+0xc6>
    1272:	20a8      	movs	r0, #168	; 0xa8
    1274:	0540      	lsls	r0, r0, #21
    1276:	4269      	negs	r1, r5
    1278:	4169      	adcs	r1, r5
    127a:	23a0      	movs	r3, #160	; 0xa0
    127c:	4d5a      	ldr	r5, [pc, #360]	; (13e8 <vd_write_block+0x238>)
    127e:	4249      	negs	r1, r1
    1280:	00db      	lsls	r3, r3, #3
    1282:	4029      	ands	r1, r5
    1284:	18c9      	adds	r1, r1, r3
    1286:	6061      	str	r1, [r4, #4]
    1288:	08c9      	lsrs	r1, r1, #3
    128a:	6020      	str	r0, [r4, #0]
    128c:	f7ff fe56 	bl	f3c <memset0>
    1290:	9b01      	ldr	r3, [sp, #4]
    1292:	001a      	movs	r2, r3
    1294:	4b51      	ldr	r3, [pc, #324]	; (13dc <vd_write_block+0x22c>)
    1296:	429a      	cmp	r2, r3
    1298:	d806      	bhi.n	12a8 <vd_write_block+0xf8>
    129a:	4854      	ldr	r0, [pc, #336]	; (13ec <vd_write_block+0x23c>)
    129c:	4b54      	ldr	r3, [pc, #336]	; (13f0 <vd_write_block+0x240>)
    129e:	4955      	ldr	r1, [pc, #340]	; (13f4 <vd_write_block+0x244>)
    12a0:	60a0      	str	r0, [r4, #8]
    12a2:	60e3      	str	r3, [r4, #12]
    12a4:	f7ff fe4a 	bl	f3c <memset0>
    12a8:	69b3      	ldr	r3, [r6, #24]
    12aa:	6862      	ldr	r2, [r4, #4]
    12ac:	4293      	cmp	r3, r2
    12ae:	d900      	bls.n	12b2 <vd_write_block+0x102>
    12b0:	e786      	b.n	11c0 <vd_write_block+0x10>
    12b2:	6123      	str	r3, [r4, #16]
    12b4:	2301      	movs	r3, #1
    12b6:	2700      	movs	r7, #0
    12b8:	425b      	negs	r3, r3
    12ba:	9a01      	ldr	r2, [sp, #4]
    12bc:	61e3      	str	r3, [r4, #28]
    12be:	4b47      	ldr	r3, [pc, #284]	; (13dc <vd_write_block+0x22c>)
    12c0:	61a7      	str	r7, [r4, #24]
    12c2:	4293      	cmp	r3, r2
    12c4:	417f      	adcs	r7, r7
    12c6:	3708      	adds	r7, #8
    12c8:	0023      	movs	r3, r4
    12ca:	334c      	adds	r3, #76	; 0x4c
    12cc:	781b      	ldrb	r3, [r3, #0]
    12ce:	9a02      	ldr	r2, [sp, #8]
    12d0:	4293      	cmp	r3, r2
    12d2:	d1ac      	bne.n	122e <vd_write_block+0x7e>
    12d4:	6973      	ldr	r3, [r6, #20]
    12d6:	69b2      	ldr	r2, [r6, #24]
    12d8:	4293      	cmp	r3, r2
    12da:	d2a8      	bcs.n	122e <vd_write_block+0x7e>
    12dc:	0020      	movs	r0, r4
    12de:	2128      	movs	r1, #40	; 0x28
    12e0:	3024      	adds	r0, #36	; 0x24
    12e2:	f7ff fe2b 	bl	f3c <memset0>
    12e6:	0022      	movs	r2, r4
    12e8:	9b03      	ldr	r3, [sp, #12]
    12ea:	3248      	adds	r2, #72	; 0x48
    12ec:	6971      	ldr	r1, [r6, #20]
    12ee:	6263      	str	r3, [r4, #36]	; 0x24
    12f0:	6163      	str	r3, [r4, #20]
    12f2:	68f3      	ldr	r3, [r6, #12]
    12f4:	7017      	strb	r7, [r2, #0]
    12f6:	4a40      	ldr	r2, [pc, #256]	; (13f8 <vd_write_block+0x248>)
    12f8:	2001      	movs	r0, #1
    12fa:	4694      	mov	ip, r2
    12fc:	62e2      	str	r2, [r4, #44]	; 0x2c
    12fe:	2280      	movs	r2, #128	; 0x80
    1300:	0052      	lsls	r2, r2, #1
    1302:	6422      	str	r2, [r4, #64]	; 0x40
    1304:	0022      	movs	r2, r4
    1306:	324a      	adds	r2, #74	; 0x4a
    1308:	7010      	strb	r0, [r2, #0]
    130a:	221f      	movs	r2, #31
    130c:	400a      	ands	r2, r1
    130e:	4090      	lsls	r0, r2
    1310:	6825      	ldr	r5, [r4, #0]
    1312:	094a      	lsrs	r2, r1, #5
    1314:	0092      	lsls	r2, r2, #2
    1316:	6221      	str	r1, [r4, #32]
    1318:	6323      	str	r3, [r4, #48]	; 0x30
    131a:	18aa      	adds	r2, r5, r2
    131c:	6815      	ldr	r5, [r2, #0]
    131e:	3620      	adds	r6, #32
    1320:	63e6      	str	r6, [r4, #60]	; 0x3c
    1322:	9001      	str	r0, [sp, #4]
    1324:	4205      	tst	r5, r0
    1326:	d000      	beq.n	132a <vd_write_block+0x17a>
    1328:	e74a      	b.n	11c0 <vd_write_block+0x10>
    132a:	2580      	movs	r5, #128	; 0x80
    132c:	69e6      	ldr	r6, [r4, #28]
    132e:	05ad      	lsls	r5, r5, #22
    1330:	42b3      	cmp	r3, r6
    1332:	d20b      	bcs.n	134c <vd_write_block+0x19c>
    1334:	42ab      	cmp	r3, r5
    1336:	41bf      	sbcs	r7, r7
    1338:	427f      	negs	r7, r7
    133a:	0038      	movs	r0, r7
    133c:	42ae      	cmp	r6, r5
    133e:	41bf      	sbcs	r7, r7
    1340:	427f      	negs	r7, r7
    1342:	9702      	str	r7, [sp, #8]
    1344:	0007      	movs	r7, r0
    1346:	9802      	ldr	r0, [sp, #8]
    1348:	4287      	cmp	r7, r0
    134a:	d003      	beq.n	1354 <vd_write_block+0x1a4>
    134c:	42ae      	cmp	r6, r5
    134e:	d202      	bcs.n	1356 <vd_write_block+0x1a6>
    1350:	42ab      	cmp	r3, r5
    1352:	d300      	bcc.n	1356 <vd_write_block+0x1a6>
    1354:	61e3      	str	r3, [r4, #28]
    1356:	0025      	movs	r5, r4
    1358:	354c      	adds	r5, #76	; 0x4c
    135a:	782d      	ldrb	r5, [r5, #0]
    135c:	2d00      	cmp	r5, #0
    135e:	d11a      	bne.n	1396 <vd_write_block+0x1e6>
    1360:	020e      	lsls	r6, r1, #8
    1362:	05c9      	lsls	r1, r1, #23
    1364:	0ec9      	lsrs	r1, r1, #27
    1366:	3501      	adds	r5, #1
    1368:	408d      	lsls	r5, r1
    136a:	0c71      	lsrs	r1, r6, #17
    136c:	68a6      	ldr	r6, [r4, #8]
    136e:	0089      	lsls	r1, r1, #2
    1370:	1871      	adds	r1, r6, r1
    1372:	680e      	ldr	r6, [r1, #0]
    1374:	422e      	tst	r6, r5
    1376:	d10e      	bne.n	1396 <vd_write_block+0x1e6>
    1378:	0b1b      	lsrs	r3, r3, #12
    137a:	031b      	lsls	r3, r3, #12
    137c:	6363      	str	r3, [r4, #52]	; 0x34
    137e:	2380      	movs	r3, #128	; 0x80
    1380:	015b      	lsls	r3, r3, #5
    1382:	63a3      	str	r3, [r4, #56]	; 0x38
    1384:	680b      	ldr	r3, [r1, #0]
    1386:	431d      	orrs	r5, r3
    1388:	600d      	str	r5, [r1, #0]
    138a:	0021      	movs	r1, r4
    138c:	2302      	movs	r3, #2
    138e:	3148      	adds	r1, #72	; 0x48
    1390:	780d      	ldrb	r5, [r1, #0]
    1392:	432b      	orrs	r3, r5
    1394:	700b      	strb	r3, [r1, #0]
    1396:	69a3      	ldr	r3, [r4, #24]
    1398:	9801      	ldr	r0, [sp, #4]
    139a:	3301      	adds	r3, #1
    139c:	61a3      	str	r3, [r4, #24]
    139e:	6813      	ldr	r3, [r2, #0]
    13a0:	0021      	movs	r1, r4
    13a2:	4318      	orrs	r0, r3
    13a4:	4663      	mov	r3, ip
    13a6:	4d0e      	ldr	r5, [pc, #56]	; (13e0 <vd_write_block+0x230>)
    13a8:	6010      	str	r0, [r2, #0]
    13aa:	3528      	adds	r5, #40	; 0x28
    13ac:	62e3      	str	r3, [r4, #44]	; 0x2c
    13ae:	2228      	movs	r2, #40	; 0x28
    13b0:	3124      	adds	r1, #36	; 0x24
    13b2:	480b      	ldr	r0, [pc, #44]	; (13e0 <vd_write_block+0x230>)
    13b4:	782b      	ldrb	r3, [r5, #0]
    13b6:	f001 f931 	bl	261c <__memcpy>
    13ba:	2001      	movs	r0, #1
    13bc:	7028      	strb	r0, [r5, #0]
    13be:	bf40      	sev
    13c0:	344b      	adds	r4, #75	; 0x4b
    13c2:	7020      	strb	r0, [r4, #0]
    13c4:	e6fd      	b.n	11c2 <vd_write_block+0x12>
    13c6:	46c0      	nop			; (mov r8, r8)
    13c8:	0a324655 	beq	c92d24 <platform.c.c204d31d+0xc86892>
    13cc:	9e5d5157 	mrcls	1, 2, r5, cr13, cr7, {2}
    13d0:	0ab16f30 	beq	fec5d098 <IOPORT+0x2ec5d098>
    13d4:	e48bff56 	str	pc, [fp], #3926	; 0xf56
    13d8:	50100d3c 	andspl	r0, r0, ip, lsr sp
    13dc:	0fffff01 	svceq	0x00ffff01
    13e0:	50100fc0 	andspl	r0, r0, r0, asr #31
    13e4:	50100ec4 	andspl	r0, r0, r4, asr #29
    13e8:	0001dce0 	andeq	sp, r1, r0, ror #25
    13ec:	15003c3c 	strne	r3, [r0, #-3132]	; 0xfffff3c4
    13f0:	00001e1e 	andeq	r1, r0, lr, lsl lr
    13f4:	000003c3 	andeq	r0, r0, r3, asr #7
    13f8:	00001629 	andeq	r1, r0, r9, lsr #12

000013fc <usb_get_single_packet_response_buffer>:
    13fc:	b570      	push	{r4, r5, r6, lr}
    13fe:	000d      	movs	r5, r1
    1400:	f7ff f8e4 	bl	5cc <usb_current_packet_buffer>
    1404:	0004      	movs	r4, r0
    1406:	0029      	movs	r1, r5
    1408:	6800      	ldr	r0, [r0, #0]
    140a:	f7ff fd97 	bl	f3c <memset0>
    140e:	6820      	ldr	r0, [r4, #0]
    1410:	7125      	strb	r5, [r4, #4]
    1412:	bd70      	pop	{r4, r5, r6, pc}

00001414 <_msc_send_csw>:
    1414:	2200      	movs	r2, #0
    1416:	b510      	push	{r4, lr}
    1418:	4c07      	ldr	r4, [pc, #28]	; (1438 <_msc_send_csw+0x24>)
    141a:	210d      	movs	r1, #13
    141c:	1da3      	adds	r3, r4, #6
    141e:	4807      	ldr	r0, [pc, #28]	; (143c <_msc_send_csw+0x28>)
    1420:	77da      	strb	r2, [r3, #31]
    1422:	f7ff ffeb 	bl	13fc <usb_get_single_packet_response_buffer>
    1426:	220d      	movs	r2, #13
    1428:	0021      	movs	r1, r4
    142a:	f001 f8f7 	bl	261c <__memcpy>
    142e:	4804      	ldr	r0, [pc, #16]	; (1440 <_msc_send_csw+0x2c>)
    1430:	f7ff f968 	bl	704 <_msc_reset_and_start_cmd_response_transfer>
    1434:	bd10      	pop	{r4, pc}
    1436:	46c0      	nop			; (mov r8, r8)
    1438:	50100a7c 	andspl	r0, r0, ip, ror sl
    143c:	50100dc0 	andspl	r0, r0, r0, asr #27
    1440:	00000735 	andeq	r0, r0, r5, lsr r7

00001444 <_msc_in_on_stall_change>:
    1444:	b510      	push	{r4, lr}
    1446:	1dc3      	adds	r3, r0, #7
    1448:	7fdb      	ldrb	r3, [r3, #31]
    144a:	2b00      	cmp	r3, #0
    144c:	d109      	bne.n	1462 <_msc_in_on_stall_change+0x1e>
    144e:	4b05      	ldr	r3, [pc, #20]	; (1464 <_msc_in_on_stall_change+0x20>)
    1450:	4298      	cmp	r0, r3
    1452:	d106      	bne.n	1462 <_msc_in_on_stall_change+0x1e>
    1454:	4b04      	ldr	r3, [pc, #16]	; (1468 <_msc_in_on_stall_change+0x24>)
    1456:	3306      	adds	r3, #6
    1458:	7fdb      	ldrb	r3, [r3, #31]
    145a:	2b00      	cmp	r3, #0
    145c:	d001      	beq.n	1462 <_msc_in_on_stall_change+0x1e>
    145e:	f7ff ffd9 	bl	1414 <_msc_send_csw>
    1462:	bd10      	pop	{r4, pc}
    1464:	50100dc0 	andspl	r0, r0, r0, asr #27
    1468:	50100a7c 	andspl	r0, r0, ip, ror sl

0000146c <_msc_data_phase_complete>:
    146c:	b510      	push	{r4, lr}
    146e:	4a0c      	ldr	r2, [pc, #48]	; (14a0 <_msc_data_phase_complete+0x34>)
    1470:	1d53      	adds	r3, r2, #5
    1472:	7fd9      	ldrb	r1, [r3, #31]
    1474:	2901      	cmp	r1, #1
    1476:	d107      	bne.n	1488 <_msc_data_phase_complete+0x1c>
    1478:	2380      	movs	r3, #128	; 0x80
    147a:	005b      	lsls	r3, r3, #1
    147c:	4809      	ldr	r0, [pc, #36]	; (14a4 <_msc_data_phase_complete+0x38>)
    147e:	8493      	strh	r3, [r2, #36]	; 0x24
    1480:	3101      	adds	r1, #1
    1482:	f7ff f9c3 	bl	80c <_usb_stall_endpoint>
    1486:	bd10      	pop	{r4, pc}
    1488:	2902      	cmp	r1, #2
    148a:	d105      	bne.n	1498 <_msc_data_phase_complete+0x2c>
    148c:	2200      	movs	r2, #0
    148e:	4805      	ldr	r0, [pc, #20]	; (14a4 <_msc_data_phase_complete+0x38>)
    1490:	77da      	strb	r2, [r3, #31]
    1492:	302c      	adds	r0, #44	; 0x2c
    1494:	f7ff f9ba 	bl	80c <_usb_stall_endpoint>
    1498:	f7ff ffbc 	bl	1414 <_msc_send_csw>
    149c:	e7f3      	b.n	1486 <_msc_data_phase_complete+0x1a>
    149e:	46c0      	nop			; (mov r8, r8)
    14a0:	50100a7c 	andspl	r0, r0, ip, ror sl
    14a4:	50100dc0 	andspl	r0, r0, r0, asr #27

000014a8 <_msc_init_for_di_or_do>:
    14a8:	2300      	movs	r3, #0
    14aa:	b570      	push	{r4, r5, r6, lr}
    14ac:	4c11      	ldr	r4, [pc, #68]	; (14f4 <_msc_init_for_di_or_do+0x4c>)
    14ae:	1d65      	adds	r5, r4, #5
    14b0:	77eb      	strb	r3, [r5, #31]
    14b2:	6223      	str	r3, [r4, #32]
    14b4:	7b05      	ldrb	r5, [r0, #12]
    14b6:	3301      	adds	r3, #1
    14b8:	2d7f      	cmp	r5, #127	; 0x7f
    14ba:	d800      	bhi.n	14be <_msc_init_for_di_or_do+0x16>
    14bc:	3301      	adds	r3, #1
    14be:	429a      	cmp	r2, r3
    14c0:	d007      	beq.n	14d2 <_msc_init_for_di_or_do+0x2a>
    14c2:	1d62      	adds	r2, r4, #5
    14c4:	77d3      	strb	r3, [r2, #31]
    14c6:	2302      	movs	r3, #2
    14c8:	7323      	strb	r3, [r4, #12]
    14ca:	f7ff ffcf 	bl	146c <_msc_data_phase_complete>
    14ce:	2000      	movs	r0, #0
    14d0:	e00f      	b.n	14f2 <_msc_init_for_di_or_do+0x4a>
    14d2:	6883      	ldr	r3, [r0, #8]
    14d4:	428b      	cmp	r3, r1
    14d6:	d005      	beq.n	14e4 <_msc_init_for_di_or_do+0x3c>
    14d8:	1d60      	adds	r0, r4, #5
    14da:	77c2      	strb	r2, [r0, #31]
    14dc:	428b      	cmp	r3, r1
    14de:	d201      	bcs.n	14e4 <_msc_init_for_di_or_do+0x3c>
    14e0:	2202      	movs	r2, #2
    14e2:	7322      	strb	r2, [r4, #12]
    14e4:	428b      	cmp	r3, r1
    14e6:	d900      	bls.n	14ea <_msc_init_for_di_or_do+0x42>
    14e8:	000b      	movs	r3, r1
    14ea:	2001      	movs	r0, #1
    14ec:	6223      	str	r3, [r4, #32]
    14ee:	2b00      	cmp	r3, #0
    14f0:	d0eb      	beq.n	14ca <_msc_init_for_di_or_do+0x22>
    14f2:	bd70      	pop	{r4, r5, r6, pc}
    14f4:	50100a7c 	andspl	r0, r0, ip, ror sl

000014f8 <_scsi_handle_read_or_write_command>:
    14f8:	b5f8      	push	{r3, r4, r5, r6, r7, lr}
    14fa:	7c82      	ldrb	r2, [r0, #18]
    14fc:	7c43      	ldrb	r3, [r0, #17]
    14fe:	0212      	lsls	r2, r2, #8
    1500:	431a      	orrs	r2, r3
    1502:	7cc3      	ldrb	r3, [r0, #19]
    1504:	000f      	movs	r7, r1
    1506:	041b      	lsls	r3, r3, #16
    1508:	431a      	orrs	r2, r3
    150a:	7d03      	ldrb	r3, [r0, #20]
    150c:	7dc1      	ldrb	r1, [r0, #23]
    150e:	061b      	lsls	r3, r3, #24
    1510:	4313      	orrs	r3, r2
    1512:	7d82      	ldrb	r2, [r0, #22]
    1514:	0209      	lsls	r1, r1, #8
    1516:	4311      	orrs	r1, r2
    1518:	4e20      	ldr	r6, [pc, #128]	; (159c <_scsi_handle_read_or_write_command+0xa4>)
    151a:	ba49      	rev16	r1, r1
    151c:	0032      	movs	r2, r6
    151e:	ba1b      	rev	r3, r3
    1520:	b289      	uxth	r1, r1
    1522:	2f01      	cmp	r7, #1
    1524:	d000      	beq.n	1528 <_scsi_handle_read_or_write_command+0x30>
    1526:	322c      	adds	r2, #44	; 0x2c
    1528:	4c1d      	ldr	r4, [pc, #116]	; (15a0 <_scsi_handle_read_or_write_command+0xa8>)
    152a:	0249      	lsls	r1, r1, #9
    152c:	6262      	str	r2, [r4, #36]	; 0x24
    152e:	003a      	movs	r2, r7
    1530:	62e3      	str	r3, [r4, #44]	; 0x2c
    1532:	f7ff ffb9 	bl	14a8 <_msc_init_for_di_or_do>
    1536:	2800      	cmp	r0, #0
    1538:	d029      	beq.n	158e <_scsi_handle_read_or_write_command+0x96>
    153a:	4b1a      	ldr	r3, [pc, #104]	; (15a4 <_scsi_handle_read_or_write_command+0xac>)
    153c:	6a1d      	ldr	r5, [r3, #32]
    153e:	2d3f      	cmp	r5, #63	; 0x3f
    1540:	d928      	bls.n	1594 <_scsi_handle_read_or_write_command+0x9c>
    1542:	4a19      	ldr	r2, [pc, #100]	; (15a8 <_scsi_handle_read_or_write_command+0xb0>)
    1544:	0020      	movs	r0, r4
    1546:	6813      	ldr	r3, [r2, #0]
    1548:	4918      	ldr	r1, [pc, #96]	; (15ac <_scsi_handle_read_or_write_command+0xb4>)
    154a:	3301      	adds	r3, #1
    154c:	6013      	str	r3, [r2, #0]
    154e:	233f      	movs	r3, #63	; 0x3f
    1550:	439d      	bics	r5, r3
    1552:	4b17      	ldr	r3, [pc, #92]	; (15b0 <_scsi_handle_read_or_write_command+0xb8>)
    1554:	61a5      	str	r5, [r4, #24]
    1556:	62a3      	str	r3, [r4, #40]	; 0x28
    1558:	4b16      	ldr	r3, [pc, #88]	; (15b4 <_scsi_handle_read_or_write_command+0xbc>)
    155a:	4a17      	ldr	r2, [pc, #92]	; (15b8 <_scsi_handle_read_or_write_command+0xc0>)
    155c:	6223      	str	r3, [r4, #32]
    155e:	2380      	movs	r3, #128	; 0x80
    1560:	009b      	lsls	r3, r3, #2
    1562:	61e3      	str	r3, [r4, #28]
    1564:	2300      	movs	r3, #0
    1566:	6163      	str	r3, [r4, #20]
    1568:	f7fe ff9a 	bl	4a0 <usb_reset_transfer>
    156c:	353f      	adds	r5, #63	; 0x3f
    156e:	68a3      	ldr	r3, [r4, #8]
    1570:	09ad      	lsrs	r5, r5, #6
    1572:	195b      	adds	r3, r3, r5
    1574:	60a3      	str	r3, [r4, #8]
    1576:	68e3      	ldr	r3, [r4, #12]
    1578:	195d      	adds	r5, r3, r5
    157a:	60e5      	str	r5, [r4, #12]
    157c:	2f01      	cmp	r7, #1
    157e:	d107      	bne.n	1590 <_scsi_handle_read_or_write_command+0x98>
    1580:	2300      	movs	r3, #0
    1582:	0030      	movs	r0, r6
    1584:	60b4      	str	r4, [r6, #8]
    1586:	60f3      	str	r3, [r6, #12]
    1588:	74a7      	strb	r7, [r4, #18]
    158a:	f7ff f889 	bl	6a0 <_usb_give_as_many_buffers_as_possible>
    158e:	bdf8      	pop	{r3, r4, r5, r6, r7, pc}
    1590:	63b4      	str	r4, [r6, #56]	; 0x38
    1592:	e7fc      	b.n	158e <_scsi_handle_read_or_write_command+0x96>
    1594:	f7ff ff6a 	bl	146c <_msc_data_phase_complete>
    1598:	e7f9      	b.n	158e <_scsi_handle_read_or_write_command+0x96>
    159a:	46c0      	nop			; (mov r8, r8)
    159c:	50100dc0 	andspl	r0, r0, r0, asr #27
    15a0:	50100a4c 	andspl	r0, r0, ip, asr #20
    15a4:	50100a7c 	andspl	r0, r0, ip, ror sl
    15a8:	50100a20 	andspl	r0, r0, r0, lsr #20
    15ac:	00003e0f 	andeq	r3, r0, pc, lsl #28
    15b0:	00003ddc 	ldrdeq	r3, [r0], -ip
    15b4:	50100b1c 	andspl	r0, r0, ip, lsl fp
    15b8:	0000146d 	andeq	r1, r0, sp, ror #8

000015bc <_scsi_standard_response>:
    15bc:	b570      	push	{r4, r5, r6, lr}
    15be:	0005      	movs	r5, r0
    15c0:	480c      	ldr	r0, [pc, #48]	; (15f4 <_scsi_standard_response+0x38>)
    15c2:	f7ff f803 	bl	5cc <usb_current_packet_buffer>
    15c6:	68a9      	ldr	r1, [r5, #8]
    15c8:	7903      	ldrb	r3, [r0, #4]
    15ca:	0004      	movs	r4, r0
    15cc:	4299      	cmp	r1, r3
    15ce:	d900      	bls.n	15d2 <_scsi_standard_response+0x16>
    15d0:	0019      	movs	r1, r3
    15d2:	2201      	movs	r2, #1
    15d4:	0028      	movs	r0, r5
    15d6:	f7ff ff67 	bl	14a8 <_msc_init_for_di_or_do>
    15da:	2800      	cmp	r0, #0
    15dc:	d009      	beq.n	15f2 <_scsi_standard_response+0x36>
    15de:	4a06      	ldr	r2, [pc, #24]	; (15f8 <_scsi_standard_response+0x3c>)
    15e0:	4806      	ldr	r0, [pc, #24]	; (15fc <_scsi_standard_response+0x40>)
    15e2:	6a13      	ldr	r3, [r2, #32]
    15e4:	7123      	strb	r3, [r4, #4]
    15e6:	6891      	ldr	r1, [r2, #8]
    15e8:	b2db      	uxtb	r3, r3
    15ea:	1acb      	subs	r3, r1, r3
    15ec:	6093      	str	r3, [r2, #8]
    15ee:	f7ff f889 	bl	704 <_msc_reset_and_start_cmd_response_transfer>
    15f2:	bd70      	pop	{r4, r5, r6, pc}
    15f4:	50100dc0 	andspl	r0, r0, r0, asr #27
    15f8:	50100a7c 	andspl	r0, r0, ip, ror sl
    15fc:	0000146d 	andeq	r1, r0, sp, ror #8

00001600 <_msc_init_for_dn>:
    1600:	2100      	movs	r1, #0
    1602:	4b08      	ldr	r3, [pc, #32]	; (1624 <_msc_init_for_dn+0x24>)
    1604:	b510      	push	{r4, lr}
    1606:	1d5a      	adds	r2, r3, #5
    1608:	77d1      	strb	r1, [r2, #31]
    160a:	6882      	ldr	r2, [r0, #8]
    160c:	428a      	cmp	r2, r1
    160e:	d006      	beq.n	161e <_msc_init_for_dn+0x1e>
    1610:	7b01      	ldrb	r1, [r0, #12]
    1612:	2201      	movs	r2, #1
    1614:	297f      	cmp	r1, #127	; 0x7f
    1616:	d800      	bhi.n	161a <_msc_init_for_dn+0x1a>
    1618:	1892      	adds	r2, r2, r2
    161a:	3305      	adds	r3, #5
    161c:	77da      	strb	r2, [r3, #31]
    161e:	f7ff ff25 	bl	146c <_msc_data_phase_complete>
    1622:	bd10      	pop	{r4, pc}
    1624:	50100a7c 	andspl	r0, r0, ip, ror sl

00001628 <_write_uf2_page_complete>:
    1628:	4b1a      	ldr	r3, [pc, #104]	; (1694 <_write_uf2_page_complete+0x6c>)
    162a:	6802      	ldr	r2, [r0, #0]
    162c:	6959      	ldr	r1, [r3, #20]
    162e:	b510      	push	{r4, lr}
    1630:	0004      	movs	r4, r0
    1632:	428a      	cmp	r2, r1
    1634:	d111      	bne.n	165a <_write_uf2_page_complete+0x32>
    1636:	6840      	ldr	r0, [r0, #4]
    1638:	2800      	cmp	r0, #0
    163a:	d10e      	bne.n	165a <_write_uf2_page_complete+0x32>
    163c:	699a      	ldr	r2, [r3, #24]
    163e:	6919      	ldr	r1, [r3, #16]
    1640:	428a      	cmp	r2, r1
    1642:	d10a      	bne.n	165a <_write_uf2_page_complete+0x32>
    1644:	001a      	movs	r2, r3
    1646:	324c      	adds	r2, #76	; 0x4c
    1648:	7812      	ldrb	r2, [r2, #0]
    164a:	2a00      	cmp	r2, #0
    164c:	d000      	beq.n	1650 <_write_uf2_page_complete+0x28>
    164e:	69d8      	ldr	r0, [r3, #28]
    1650:	22fa      	movs	r2, #250	; 0xfa
    1652:	4911      	ldr	r1, [pc, #68]	; (1698 <_write_uf2_page_complete+0x70>)
    1654:	0092      	lsls	r2, r2, #2
    1656:	f7ff f9e5 	bl	a24 <watchdog_reboot>
    165a:	cc0a      	ldmia	r4!, {r1, r3}
    165c:	f3ef 8410 	mrs	r4, PRIMASK
    1660:	b672      	cpsid	i
    1662:	4a0e      	ldr	r2, [pc, #56]	; (169c <_write_uf2_page_complete+0x74>)
    1664:	6812      	ldr	r2, [r2, #0]
    1666:	4291      	cmp	r1, r2
    1668:	d111      	bne.n	168e <_write_uf2_page_complete+0x66>
    166a:	2b00      	cmp	r3, #0
    166c:	d00c      	beq.n	1688 <_write_uf2_page_complete+0x60>
    166e:	2201      	movs	r2, #1
    1670:	4b0b      	ldr	r3, [pc, #44]	; (16a0 <_write_uf2_page_complete+0x78>)
    1672:	731a      	strb	r2, [r3, #12]
    1674:	3206      	adds	r2, #6
    1676:	73da      	strb	r2, [r3, #15]
    1678:	3219      	adds	r2, #25
    167a:	765a      	strb	r2, [r3, #25]
    167c:	3a1e      	subs	r2, #30
    167e:	769a      	strb	r2, [r3, #26]
    1680:	3305      	adds	r3, #5
    1682:	77da      	strb	r2, [r3, #31]
    1684:	f7ff fef2 	bl	146c <_msc_data_phase_complete>
    1688:	4806      	ldr	r0, [pc, #24]	; (16a4 <_write_uf2_page_complete+0x7c>)
    168a:	f7ff fbaf 	bl	dec <usb_stream_packet_handler_complete>
    168e:	f384 8810 	msr	PRIMASK, r4
    1692:	bd10      	pop	{r4, pc}
    1694:	50100d3c 	andspl	r0, r0, ip, lsr sp
    1698:	20042000 	andcs	r2, r4, r0
    169c:	50100a20 	andspl	r0, r0, r0, lsr #20
    16a0:	50100a7c 	andspl	r0, r0, ip, ror sl
    16a4:	50100a4c 	andspl	r0, r0, ip, asr #20

000016a8 <_picoboot_reset>:
    16a8:	2100      	movs	r1, #0
    16aa:	b510      	push	{r4, lr}
    16ac:	480f      	ldr	r0, [pc, #60]	; (16ec <_picoboot_reset+0x44>)
    16ae:	f7ff f991 	bl	9d4 <_usb_reset_endpoint>
    16b2:	480f      	ldr	r0, [pc, #60]	; (16f0 <_picoboot_reset+0x48>)
    16b4:	2100      	movs	r1, #0
    16b6:	f7ff f98d 	bl	9d4 <_usb_reset_endpoint>
    16ba:	480e      	ldr	r0, [pc, #56]	; (16f4 <_picoboot_reset+0x4c>)
    16bc:	7a43      	ldrb	r3, [r0, #9]
    16be:	2b00      	cmp	r3, #0
    16c0:	d003      	beq.n	16ca <_picoboot_reset+0x22>
    16c2:	2280      	movs	r2, #128	; 0x80
    16c4:	4b0c      	ldr	r3, [pc, #48]	; (16f8 <_picoboot_reset+0x50>)
    16c6:	0292      	lsls	r2, r2, #10
    16c8:	601a      	str	r2, [r3, #0]
    16ca:	2110      	movs	r1, #16
    16cc:	f7ff fc36 	bl	f3c <memset0>
    16d0:	4b0a      	ldr	r3, [pc, #40]	; (16fc <_picoboot_reset+0x54>)
    16d2:	2200      	movs	r2, #0
    16d4:	0019      	movs	r1, r3
    16d6:	3329      	adds	r3, #41	; 0x29
    16d8:	3128      	adds	r1, #40	; 0x28
    16da:	700a      	strb	r2, [r1, #0]
    16dc:	701a      	strb	r2, [r3, #0]
    16de:	4b08      	ldr	r3, [pc, #32]	; (1700 <_picoboot_reset+0x58>)
    16e0:	0019      	movs	r1, r3
    16e2:	3329      	adds	r3, #41	; 0x29
    16e4:	3128      	adds	r1, #40	; 0x28
    16e6:	700a      	strb	r2, [r1, #0]
    16e8:	701a      	strb	r2, [r3, #0]
    16ea:	bd10      	pop	{r4, pc}
    16ec:	50100e58 	andspl	r0, r0, r8, asr lr
    16f0:	50100e24 	andspl	r0, r0, r4, lsr #28
    16f4:	50100ab8 			; <UNDEFINED> instruction: 0x50100ab8
    16f8:	4001a01c 	andmi	sl, r1, ip, lsl r0
    16fc:	50100fc0 	andspl	r0, r0, r0, asr #31
    1700:	50100e84 	andspl	r0, r0, r4, lsl #29

00001704 <_usb_boot_on_configure>:
    1704:	2280      	movs	r2, #128	; 0x80
    1706:	4b05      	ldr	r3, [pc, #20]	; (171c <_usb_boot_on_configure+0x18>)
    1708:	0292      	lsls	r2, r2, #10
    170a:	b510      	push	{r4, lr}
    170c:	601a      	str	r2, [r3, #0]
    170e:	2900      	cmp	r1, #0
    1710:	d003      	beq.n	171a <_usb_boot_on_configure+0x16>
    1712:	f7ff fc19 	bl	f48 <_msc_reset>
    1716:	f7ff ffc7 	bl	16a8 <_picoboot_reset>
    171a:	bd10      	pop	{r4, pc}
    171c:	4001a01c 	andmi	sl, r1, ip, lsl r0

00001720 <_picoboot_setup_request_handler>:
    1720:	2260      	movs	r2, #96	; 0x60
    1722:	780b      	ldrb	r3, [r1, #0]
    1724:	2000      	movs	r0, #0
    1726:	b510      	push	{r4, lr}
    1728:	401a      	ands	r2, r3
    172a:	2a40      	cmp	r2, #64	; 0x40
    172c:	d113      	bne.n	1756 <_picoboot_setup_request_handler+0x36>
    172e:	b25b      	sxtb	r3, r3
    1730:	784a      	ldrb	r2, [r1, #1]
    1732:	4283      	cmp	r3, r0
    1734:	da10      	bge.n	1758 <_picoboot_setup_request_handler+0x38>
    1736:	2a42      	cmp	r2, #66	; 0x42
    1738:	d10d      	bne.n	1756 <_picoboot_setup_request_handler+0x36>
    173a:	88cc      	ldrh	r4, [r1, #6]
    173c:	2c10      	cmp	r4, #16
    173e:	d10a      	bne.n	1756 <_picoboot_setup_request_handler+0x36>
    1740:	0021      	movs	r1, r4
    1742:	4809      	ldr	r0, [pc, #36]	; (1768 <_picoboot_setup_request_handler+0x48>)
    1744:	f7ff fe5a 	bl	13fc <usb_get_single_packet_response_buffer>
    1748:	0022      	movs	r2, r4
    174a:	4908      	ldr	r1, [pc, #32]	; (176c <_picoboot_setup_request_handler+0x4c>)
    174c:	f000 ff66 	bl	261c <__memcpy>
    1750:	f7ff f828 	bl	7a4 <usb_start_single_buffer_control_in_transfer>
    1754:	2001      	movs	r0, #1
    1756:	bd10      	pop	{r4, pc}
    1758:	2a41      	cmp	r2, #65	; 0x41
    175a:	d1fc      	bne.n	1756 <_picoboot_setup_request_handler+0x36>
    175c:	f7ff ffa4 	bl	16a8 <_picoboot_reset>
    1760:	f7ff f808 	bl	774 <usb_start_empty_control_in_transfer_null_completion>
    1764:	e7f6      	b.n	1754 <_picoboot_setup_request_handler+0x34>
    1766:	46c0      	nop			; (mov r8, r8)
    1768:	50100f68 	andspl	r0, r0, r8, ror #30
    176c:	50100ab8 			; <UNDEFINED> instruction: 0x50100ab8

00001770 <flash_put_get>:
    1770:	b5f8      	push	{r3, r4, r5, r6, r7, lr}
    1772:	4e18      	ldr	r6, [pc, #96]	; (17d4 <flash_put_get+0x64>)
    1774:	24c0      	movs	r4, #192	; 0xc0
    1776:	0015      	movs	r5, r2
    1778:	46b4      	mov	ip, r6
    177a:	0564      	lsls	r4, r4, #21
    177c:	001e      	movs	r6, r3
    177e:	4316      	orrs	r6, r2
    1780:	432e      	orrs	r6, r5
    1782:	d103      	bne.n	178c <flash_put_get+0x1c>
    1784:	2003      	movs	r0, #3
    1786:	f7ff fa0f 	bl	ba8 <flash_cs_force>
    178a:	bdf8      	pop	{r3, r4, r5, r6, r7, pc}
    178c:	6a27      	ldr	r7, [r4, #32]
    178e:	6a66      	ldr	r6, [r4, #36]	; 0x24
    1790:	2a00      	cmp	r2, #0
    1792:	d015      	beq.n	17c0 <flash_put_get+0x50>
    1794:	19bf      	adds	r7, r7, r6
    1796:	2f0d      	cmp	r7, #13
    1798:	d812      	bhi.n	17c0 <flash_put_get+0x50>
    179a:	1e07      	subs	r7, r0, #0
    179c:	d001      	beq.n	17a2 <flash_put_get+0x32>
    179e:	7807      	ldrb	r7, [r0, #0]
    17a0:	3001      	adds	r0, #1
    17a2:	6627      	str	r7, [r4, #96]	; 0x60
    17a4:	3a01      	subs	r2, #1
    17a6:	2e00      	cmp	r6, #0
    17a8:	d0e8      	beq.n	177c <flash_put_get+0xc>
    17aa:	6e26      	ldr	r6, [r4, #96]	; 0x60
    17ac:	2b00      	cmp	r3, #0
    17ae:	d001      	beq.n	17b4 <flash_put_get+0x44>
    17b0:	3b01      	subs	r3, #1
    17b2:	e7e3      	b.n	177c <flash_put_get+0xc>
    17b4:	2900      	cmp	r1, #0
    17b6:	d001      	beq.n	17bc <flash_put_get+0x4c>
    17b8:	700e      	strb	r6, [r1, #0]
    17ba:	3101      	adds	r1, #1
    17bc:	3d01      	subs	r5, #1
    17be:	e7dd      	b.n	177c <flash_put_get+0xc>
    17c0:	2e00      	cmp	r6, #0
    17c2:	d1f2      	bne.n	17aa <flash_put_get+0x3a>
    17c4:	4666      	mov	r6, ip
    17c6:	27c0      	movs	r7, #192	; 0xc0
    17c8:	6836      	ldr	r6, [r6, #0]
    17ca:	02bf      	lsls	r7, r7, #10
    17cc:	423e      	tst	r6, r7
    17ce:	d0d5      	beq.n	177c <flash_put_get+0xc>
    17d0:	e7d8      	b.n	1784 <flash_put_get+0x14>
    17d2:	46c0      	nop			; (mov r8, r8)
    17d4:	4001801c 	andmi	r8, r1, ip, lsl r0

000017d8 <flash_read_data.constprop.0>:
    17d8:	b510      	push	{r4, lr}
    17da:	000c      	movs	r4, r1
    17dc:	0001      	movs	r1, r0
    17de:	2003      	movs	r0, #3
    17e0:	f7ff f9ea 	bl	bb8 <flash_put_cmd_addr>
    17e4:	2280      	movs	r2, #128	; 0x80
    17e6:	2304      	movs	r3, #4
    17e8:	0021      	movs	r1, r4
    17ea:	2000      	movs	r0, #0
    17ec:	0052      	lsls	r2, r2, #1
    17ee:	f7ff ffbf 	bl	1770 <flash_put_get>
    17f2:	bd10      	pop	{r4, pc}

000017f4 <_do_flash_page_read>:
    17f4:	23f0      	movs	r3, #240	; 0xf0
    17f6:	b510      	push	{r4, lr}
    17f8:	061b      	lsls	r3, r3, #24
    17fa:	18c0      	adds	r0, r0, r3
    17fc:	f7ff ffec 	bl	17d8 <flash_read_data.constprop.0>
    1800:	2000      	movs	r0, #0
    1802:	bd10      	pop	{r4, pc}

00001804 <flash_enable_write>:
    1804:	b510      	push	{r4, lr}
    1806:	2002      	movs	r0, #2
    1808:	f7ff f9ce 	bl	ba8 <flash_cs_force>
    180c:	23c0      	movs	r3, #192	; 0xc0
    180e:	2206      	movs	r2, #6
    1810:	055b      	lsls	r3, r3, #21
    1812:	661a      	str	r2, [r3, #96]	; 0x60
    1814:	2200      	movs	r2, #0
    1816:	2301      	movs	r3, #1
    1818:	0011      	movs	r1, r2
    181a:	0010      	movs	r0, r2
    181c:	f7ff ffa8 	bl	1770 <flash_put_get>
    1820:	bd10      	pop	{r4, pc}
    1822:	be00      	bkpt	0x0000

00001824 <flash_wait_ready>:
    1824:	b573      	push	{r0, r1, r4, r5, r6, lr}
    1826:	26c0      	movs	r6, #192	; 0xc0
    1828:	2401      	movs	r4, #1
    182a:	0576      	lsls	r6, r6, #21
    182c:	2002      	movs	r0, #2
    182e:	f7ff f9bb 	bl	ba8 <flash_cs_force>
    1832:	2305      	movs	r3, #5
    1834:	6633      	str	r3, [r6, #96]	; 0x60
    1836:	466b      	mov	r3, sp
    1838:	1ddd      	adds	r5, r3, #7
    183a:	0022      	movs	r2, r4
    183c:	0023      	movs	r3, r4
    183e:	0029      	movs	r1, r5
    1840:	2000      	movs	r0, #0
    1842:	f7ff ff95 	bl	1770 <flash_put_get>
    1846:	782b      	ldrb	r3, [r5, #0]
    1848:	4223      	tst	r3, r4
    184a:	d005      	beq.n	1858 <flash_wait_ready+0x34>
    184c:	4b03      	ldr	r3, [pc, #12]	; (185c <flash_wait_ready+0x38>)
    184e:	681a      	ldr	r2, [r3, #0]
    1850:	23c0      	movs	r3, #192	; 0xc0
    1852:	029b      	lsls	r3, r3, #10
    1854:	421a      	tst	r2, r3
    1856:	d0e9      	beq.n	182c <flash_wait_ready+0x8>
    1858:	bd73      	pop	{r0, r1, r4, r5, r6, pc}
    185a:	46c0      	nop			; (mov r8, r8)
    185c:	4001801c 	andmi	r8, r1, ip, lsl r0

00001860 <flash_user_erase>:
    1860:	b570      	push	{r4, r5, r6, lr}
    1862:	0005      	movs	r5, r0
    1864:	000c      	movs	r4, r1
    1866:	f7ff ffcd 	bl	1804 <flash_enable_write>
    186a:	0029      	movs	r1, r5
    186c:	0020      	movs	r0, r4
    186e:	f7ff f9a3 	bl	bb8 <flash_put_cmd_addr>
    1872:	2200      	movs	r2, #0
    1874:	2304      	movs	r3, #4
    1876:	0011      	movs	r1, r2
    1878:	0010      	movs	r0, r2
    187a:	f7ff ff79 	bl	1770 <flash_put_get>
    187e:	f7ff ffd1 	bl	1824 <flash_wait_ready>
    1882:	bd70      	pop	{r4, r5, r6, pc}

00001884 <_do_flash_erase_sector>:
    1884:	23f0      	movs	r3, #240	; 0xf0
    1886:	b510      	push	{r4, lr}
    1888:	061b      	lsls	r3, r3, #24
    188a:	18c0      	adds	r0, r0, r3
    188c:	2120      	movs	r1, #32
    188e:	f7ff ffe7 	bl	1860 <flash_user_erase>
    1892:	2000      	movs	r0, #0
    1894:	bd10      	pop	{r4, pc}

00001896 <flash_page_program>:
    1896:	b570      	push	{r4, r5, r6, lr}
    1898:	0005      	movs	r5, r0
    189a:	000c      	movs	r4, r1
    189c:	f7ff ffb2 	bl	1804 <flash_enable_write>
    18a0:	0029      	movs	r1, r5
    18a2:	2002      	movs	r0, #2
    18a4:	f7ff f988 	bl	bb8 <flash_put_cmd_addr>
    18a8:	2280      	movs	r2, #128	; 0x80
    18aa:	2304      	movs	r3, #4
    18ac:	2100      	movs	r1, #0
    18ae:	0020      	movs	r0, r4
    18b0:	0052      	lsls	r2, r2, #1
    18b2:	f7ff ff5d 	bl	1770 <flash_put_get>
    18b6:	f7ff ffb5 	bl	1824 <flash_wait_ready>
    18ba:	bd70      	pop	{r4, r5, r6, pc}

000018bc <_do_flash_page_program>:
    18bc:	23f0      	movs	r3, #240	; 0xf0
    18be:	b510      	push	{r4, lr}
    18c0:	061b      	lsls	r3, r3, #24
    18c2:	18c0      	adds	r0, r0, r3
    18c4:	f7ff ffe7 	bl	1896 <flash_page_program>
    18c8:	2000      	movs	r0, #0
    18ca:	bd10      	pop	{r4, pc}

000018cc <_usb_boot>:
    18cc:	b5f0      	push	{r4, r5, r6, r7, lr}
    18ce:	0006      	movs	r6, r0
    18d0:	2080      	movs	r0, #128	; 0x80
    18d2:	b085      	sub	sp, #20
    18d4:	0440      	lsls	r0, r0, #17
    18d6:	000d      	movs	r5, r1
    18d8:	f7fe fc5a 	bl	190 <reset_block_noinline>
    18dc:	4b7d      	ldr	r3, [pc, #500]	; (1ad4 <_usb_boot+0x208>)
    18de:	681b      	ldr	r3, [r3, #0]
    18e0:	079b      	lsls	r3, r3, #30
    18e2:	d438      	bmi.n	1956 <_usb_boot+0x8a>
    18e4:	2103      	movs	r1, #3
    18e6:	4b7c      	ldr	r3, [pc, #496]	; (1ad8 <_usb_boot+0x20c>)
    18e8:	4a7c      	ldr	r2, [pc, #496]	; (1adc <_usb_boot+0x210>)
    18ea:	4c7d      	ldr	r4, [pc, #500]	; (1ae0 <_usb_boot+0x214>)
    18ec:	601a      	str	r2, [r3, #0]
    18ee:	4b7d      	ldr	r3, [pc, #500]	; (1ae4 <_usb_boot+0x218>)
    18f0:	6019      	str	r1, [r3, #0]
    18f2:	4b7d      	ldr	r3, [pc, #500]	; (1ae8 <_usb_boot+0x21c>)
    18f4:	497d      	ldr	r1, [pc, #500]	; (1aec <_usb_boot+0x220>)
    18f6:	67a3      	str	r3, [r4, #120]	; 0x78
    18f8:	3bff      	subs	r3, #255	; 0xff
    18fa:	3bff      	subs	r3, #255	; 0xff
    18fc:	600b      	str	r3, [r1, #0]
    18fe:	6c61      	ldr	r1, [r4, #68]	; 0x44
    1900:	4219      	tst	r1, r3
    1902:	d0fc      	beq.n	18fe <_usb_boot+0x32>
    1904:	2380      	movs	r3, #128	; 0x80
    1906:	005b      	lsls	r3, r3, #1
    1908:	6423      	str	r3, [r4, #64]	; 0x40
    190a:	65a3      	str	r3, [r4, #88]	; 0x58
    190c:	4b78      	ldr	r3, [pc, #480]	; (1af0 <_usb_boot+0x224>)
    190e:	601a      	str	r2, [r3, #0]
    1910:	685a      	ldr	r2, [r3, #4]
    1912:	2a00      	cmp	r2, #0
    1914:	dafc      	bge.n	1910 <_usb_boot+0x44>
    1916:	2080      	movs	r0, #128	; 0x80
    1918:	0140      	lsls	r0, r0, #5
    191a:	f7fe fc3c 	bl	196 <reset_unreset_block_wait_noinline>
    191e:	2201      	movs	r2, #1
    1920:	4b74      	ldr	r3, [pc, #464]	; (1af4 <_usb_boot+0x228>)
    1922:	2121      	movs	r1, #33	; 0x21
    1924:	601a      	str	r2, [r3, #0]
    1926:	3263      	adds	r2, #99	; 0x63
    1928:	609a      	str	r2, [r3, #8]
    192a:	22aa      	movs	r2, #170	; 0xaa
    192c:	02d2      	lsls	r2, r2, #11
    192e:	60da      	str	r2, [r3, #12]
    1930:	4a71      	ldr	r2, [pc, #452]	; (1af8 <_usb_boot+0x22c>)
    1932:	6011      	str	r1, [r2, #0]
    1934:	6819      	ldr	r1, [r3, #0]
    1936:	2900      	cmp	r1, #0
    1938:	dafc      	bge.n	1934 <_usb_boot+0x68>
    193a:	2308      	movs	r3, #8
    193c:	6013      	str	r3, [r2, #0]
    193e:	2300      	movs	r3, #0
    1940:	63e3      	str	r3, [r4, #60]	; 0x3c
    1942:	2382      	movs	r3, #130	; 0x82
    1944:	2201      	movs	r2, #1
    1946:	011b      	lsls	r3, r3, #4
    1948:	6563      	str	r3, [r4, #84]	; 0x54
    194a:	4b6c      	ldr	r3, [pc, #432]	; (1afc <_usb_boot+0x230>)
    194c:	601a      	str	r2, [r3, #0]
    194e:	2302      	movs	r3, #2
    1950:	6c62      	ldr	r2, [r4, #68]	; 0x44
    1952:	421a      	tst	r2, r3
    1954:	d0fc      	beq.n	1950 <_usb_boot+0x84>
    1956:	2080      	movs	r0, #128	; 0x80
    1958:	0440      	lsls	r0, r0, #17
    195a:	f7fe fc1e 	bl	19a <unreset_block_wait_noinline>
    195e:	220c      	movs	r2, #12
    1960:	4b67      	ldr	r3, [pc, #412]	; (1b00 <_usb_boot+0x234>)
    1962:	2180      	movs	r1, #128	; 0x80
    1964:	62da      	str	r2, [r3, #44]	; 0x2c
    1966:	4b67      	ldr	r3, [pc, #412]	; (1b04 <_usb_boot+0x238>)
    1968:	32f5      	adds	r2, #245	; 0xf5
    196a:	32ff      	adds	r2, #255	; 0xff
    196c:	601a      	str	r2, [r3, #0]
    196e:	2201      	movs	r2, #1
    1970:	4b65      	ldr	r3, [pc, #404]	; (1b08 <_usb_boot+0x23c>)
    1972:	4866      	ldr	r0, [pc, #408]	; (1b0c <_usb_boot+0x240>)
    1974:	601a      	str	r2, [r3, #0]
    1976:	0149      	lsls	r1, r1, #5
    1978:	f7ff fae0 	bl	f3c <memset0>
    197c:	4b64      	ldr	r3, [pc, #400]	; (1b10 <_usb_boot+0x244>)
    197e:	601e      	str	r6, [r3, #0]
    1980:	43eb      	mvns	r3, r5
    1982:	079b      	lsls	r3, r3, #30
    1984:	d100      	bne.n	1988 <_usb_boot+0xbc>
    1986:	2500      	movs	r5, #0
    1988:	2e00      	cmp	r6, #0
    198a:	d001      	beq.n	1990 <_usb_boot+0xc4>
    198c:	f7ff fab4 	bl	ef8 <gpio_setup.part.0>
    1990:	4c60      	ldr	r4, [pc, #384]	; (1b14 <_usb_boot+0x248>)
    1992:	4b61      	ldr	r3, [pc, #388]	; (1b18 <_usb_boot+0x24c>)
    1994:	0020      	movs	r0, r4
    1996:	6819      	ldr	r1, [r3, #0]
    1998:	f7ff f8bc 	bl	b14 <_write_six_msb_hex_chars>
    199c:	4b5f      	ldr	r3, [pc, #380]	; (1b1c <_usb_boot+0x250>)
    199e:	1da0      	adds	r0, r4, #6
    19a0:	6819      	ldr	r1, [r3, #0]
    19a2:	f7ff f8b7 	bl	b14 <_write_six_msb_hex_chars>
    19a6:	2601      	movs	r6, #1
    19a8:	4c5d      	ldr	r4, [pc, #372]	; (1b20 <_usb_boot+0x254>)
    19aa:	2d00      	cmp	r5, #0
    19ac:	d01f      	beq.n	19ee <_usb_boot+0x122>
    19ae:	4f5d      	ldr	r7, [pc, #372]	; (1b24 <_usb_boot+0x258>)
    19b0:	2220      	movs	r2, #32
    19b2:	0021      	movs	r1, r4
    19b4:	0038      	movs	r0, r7
    19b6:	f000 fe31 	bl	261c <__memcpy>
    19ba:	2320      	movs	r3, #32
    19bc:	70bb      	strb	r3, [r7, #2]
    19be:	2300      	movs	r3, #0
    19c0:	2601      	movs	r6, #1
    19c2:	70fb      	strb	r3, [r7, #3]
    19c4:	002b      	movs	r3, r5
    19c6:	4033      	ands	r3, r6
    19c8:	9303      	str	r3, [sp, #12]
    19ca:	4235      	tst	r5, r6
    19cc:	d007      	beq.n	19de <_usb_boot+0x112>
    19ce:	0021      	movs	r1, r4
    19d0:	0038      	movs	r0, r7
    19d2:	2217      	movs	r2, #23
    19d4:	3120      	adds	r1, #32
    19d6:	3009      	adds	r0, #9
    19d8:	f000 fe20 	bl	261c <__memcpy>
    19dc:	2600      	movs	r6, #0
    19de:	2301      	movs	r3, #1
    19e0:	713b      	strb	r3, [r7, #4]
    19e2:	2300      	movs	r3, #0
    19e4:	72fb      	strb	r3, [r7, #11]
    19e6:	9b03      	ldr	r3, [sp, #12]
    19e8:	003c      	movs	r4, r7
    19ea:	2b00      	cmp	r3, #0
    19ec:	d108      	bne.n	1a00 <_usb_boot+0x134>
    19ee:	0021      	movs	r1, r4
    19f0:	4f4d      	ldr	r7, [pc, #308]	; (1b28 <_usb_boot+0x25c>)
    19f2:	4a4e      	ldr	r2, [pc, #312]	; (1b2c <_usb_boot+0x260>)
    19f4:	0038      	movs	r0, r7
    19f6:	3109      	adds	r1, #9
    19f8:	f7fe fdae 	bl	558 <usb_interface_init.constprop.0>
    19fc:	4b4c      	ldr	r3, [pc, #304]	; (1b30 <_usb_boot+0x264>)
    19fe:	607b      	str	r3, [r7, #4]
    1a00:	07ab      	lsls	r3, r5, #30
    1a02:	d40f      	bmi.n	1a24 <_usb_boot+0x158>
    1a04:	2117      	movs	r1, #23
    1a06:	4371      	muls	r1, r6
    1a08:	4e4a      	ldr	r6, [pc, #296]	; (1b34 <_usb_boot+0x268>)
    1a0a:	3109      	adds	r1, #9
    1a0c:	4a4a      	ldr	r2, [pc, #296]	; (1b38 <_usb_boot+0x26c>)
    1a0e:	0030      	movs	r0, r6
    1a10:	1861      	adds	r1, r4, r1
    1a12:	f7fe fda1 	bl	558 <usb_interface_init.constprop.0>
    1a16:	4b49      	ldr	r3, [pc, #292]	; (1b3c <_usb_boot+0x270>)
    1a18:	4a49      	ldr	r2, [pc, #292]	; (1b40 <_usb_boot+0x274>)
    1a1a:	601a      	str	r2, [r3, #0]
    1a1c:	4a49      	ldr	r2, [pc, #292]	; (1b44 <_usb_boot+0x278>)
    1a1e:	6053      	str	r3, [r2, #4]
    1a20:	4b49      	ldr	r3, [pc, #292]	; (1b48 <_usb_boot+0x27c>)
    1a22:	6073      	str	r3, [r6, #4]
    1a24:	4b49      	ldr	r3, [pc, #292]	; (1b4c <_usb_boot+0x280>)
    1a26:	2d01      	cmp	r5, #1
    1a28:	d100      	bne.n	1a2c <_usb_boot+0x160>
    1a2a:	3304      	adds	r3, #4
    1a2c:	4d48      	ldr	r5, [pc, #288]	; (1b50 <_usb_boot+0x284>)
    1a2e:	4a49      	ldr	r2, [pc, #292]	; (1b54 <_usb_boot+0x288>)
    1a30:	60ec      	str	r4, [r5, #12]
    1a32:	2400      	movs	r4, #0
    1a34:	4f48      	ldr	r7, [pc, #288]	; (1b58 <_usb_boot+0x28c>)
    1a36:	612b      	str	r3, [r5, #16]
    1a38:	4b48      	ldr	r3, [pc, #288]	; (1b5c <_usb_boot+0x290>)
    1a3a:	0021      	movs	r1, r4
    1a3c:	602a      	str	r2, [r5, #0]
    1a3e:	60ab      	str	r3, [r5, #8]
    1a40:	2201      	movs	r2, #1
    1a42:	2340      	movs	r3, #64	; 0x40
    1a44:	9400      	str	r4, [sp, #0]
    1a46:	0038      	movs	r0, r7
    1a48:	f7fe fd72 	bl	530 <_usb_endpoint_init_internal>
    1a4c:	4e44      	ldr	r6, [pc, #272]	; (1b60 <_usb_boot+0x294>)
    1a4e:	0022      	movs	r2, r4
    1a50:	0021      	movs	r1, r4
    1a52:	2340      	movs	r3, #64	; 0x40
    1a54:	9400      	str	r4, [sp, #0]
    1a56:	0030      	movs	r0, r6
    1a58:	f7fe fd6a 	bl	530 <_usb_endpoint_init_internal>
    1a5c:	2380      	movs	r3, #128	; 0x80
    1a5e:	0021      	movs	r1, r4
    1a60:	005b      	lsls	r3, r3, #1
    1a62:	0038      	movs	r0, r7
    1a64:	832b      	strh	r3, [r5, #24]
    1a66:	f7fe fd2f 	bl	4c8 <_usb_endpoint_hw_init>
    1a6a:	2380      	movs	r3, #128	; 0x80
    1a6c:	0021      	movs	r1, r4
    1a6e:	005b      	lsls	r3, r3, #1
    1a70:	0030      	movs	r0, r6
    1a72:	832b      	strh	r3, [r5, #24]
    1a74:	f7fe fd28 	bl	4c8 <_usb_endpoint_hw_init>
    1a78:	23c0      	movs	r3, #192	; 0xc0
    1a7a:	005b      	lsls	r3, r3, #1
    1a7c:	832b      	strh	r3, [r5, #24]
    1a7e:	3401      	adds	r4, #1
    1a80:	4b38      	ldr	r3, [pc, #224]	; (1b64 <_usb_boot+0x298>)
    1a82:	00a2      	lsls	r2, r4, #2
    1a84:	58d0      	ldr	r0, [r2, r3]
    1a86:	2800      	cmp	r0, #0
    1a88:	d002      	beq.n	1a90 <_usb_boot+0x1c4>
    1a8a:	2100      	movs	r1, #0
    1a8c:	f7fe fd1c 	bl	4c8 <_usb_endpoint_hw_init>
    1a90:	3401      	adds	r4, #1
    1a92:	2c05      	cmp	r4, #5
    1a94:	d1f4      	bne.n	1a80 <_usb_boot+0x1b4>
    1a96:	4b34      	ldr	r3, [pc, #208]	; (1b68 <_usb_boot+0x29c>)
    1a98:	2000      	movs	r0, #0
    1a9a:	606b      	str	r3, [r5, #4]
    1a9c:	4b33      	ldr	r3, [pc, #204]	; (1b6c <_usb_boot+0x2a0>)
    1a9e:	4a34      	ldr	r2, [pc, #208]	; (1b70 <_usb_boot+0x2a4>)
    1aa0:	001c      	movs	r4, r3
    1aa2:	0019      	movs	r1, r3
    1aa4:	3304      	adds	r3, #4
    1aa6:	6008      	str	r0, [r1, #0]
    1aa8:	4293      	cmp	r3, r2
    1aaa:	d1fa      	bne.n	1aa2 <_usb_boot+0x1d6>
    1aac:	2309      	movs	r3, #9
    1aae:	6763      	str	r3, [r4, #116]	; 0x74
    1ab0:	3303      	adds	r3, #3
    1ab2:	67a3      	str	r3, [r4, #120]	; 0x78
    1ab4:	3b0b      	subs	r3, #11
    1ab6:	6423      	str	r3, [r4, #64]	; 0x40
    1ab8:	f7ff fa08 	bl	ecc <_usb_handle_bus_reset>
    1abc:	4b2d      	ldr	r3, [pc, #180]	; (1b74 <_usb_boot+0x2a8>)
    1abe:	4a2e      	ldr	r2, [pc, #184]	; (1b78 <_usb_boot+0x2ac>)
    1ac0:	64e3      	str	r3, [r4, #76]	; 0x4c
    1ac2:	4b2e      	ldr	r3, [pc, #184]	; (1b7c <_usb_boot+0x2b0>)
    1ac4:	601a      	str	r2, [r3, #0]
    1ac6:	2320      	movs	r3, #32
    1ac8:	4a2d      	ldr	r2, [pc, #180]	; (1b80 <_usb_boot+0x2b4>)
    1aca:	6013      	str	r3, [r2, #0]
    1acc:	4a2d      	ldr	r2, [pc, #180]	; (1b84 <_usb_boot+0x2b8>)
    1ace:	6013      	str	r3, [r2, #0]
    1ad0:	f7fe fbfc 	bl	2cc <async_task_worker_thunk>
    1ad4:	4006c000 	andmi	ip, r6, r0
    1ad8:	40060000 	andmi	r0, r6, r0
    1adc:	00fab000 	rscseq	fp, sl, r0
    1ae0:	40008000 	andmi	r8, r0, r0
    1ae4:	4000b030 	andmi	fp, r0, r0, lsr r0
    1ae8:	000001ff 	strdeq	r0, [r0], -pc	; <UNPREDICTABLE>
    1aec:	4000b03c 	andmi	fp, r0, ip, lsr r0
    1af0:	40024000 	andmi	r4, r2, r0
    1af4:	40028000 	andmi	r8, r2, r0
    1af8:	4002b004 	andmi	fp, r2, r4
    1afc:	4000a03c 	andmi	sl, r0, ip, lsr r0
    1b00:	40058000 	andmi	r8, r5, r0
    1b04:	4005a02c 	andmi	sl, r5, ip, lsr #32
    1b08:	14003000 	strne	r3, [r0], #-0
    1b0c:	50100000 	andspl	r0, r0, r0
    1b10:	50100f64 	andspl	r0, r0, r4, ror #30
    1b14:	50100eb5 			; <UNDEFINED> instruction: 0x50100eb5
    1b18:	40000040 	andmi	r0, r0, r0, asr #32
    1b1c:	00000050 	andeq	r0, r0, r0, asr r0
    1b20:	00003e11 	andeq	r3, r0, r1, lsl lr
    1b24:	50100d1c 	andspl	r0, r0, ip, lsl sp
    1b28:	50100e18 	andspl	r0, r0, r8, lsl lr
    1b2c:	00003dd4 	ldrdeq	r3, [r0], -r4
    1b30:	00000fad 	andeq	r0, r0, sp, lsr #31
    1b34:	50100e50 	andspl	r0, r0, r0, asr lr
    1b38:	00003f34 	andeq	r3, r0, r4, lsr pc
    1b3c:	50100aa4 	andspl	r0, r0, r4, lsr #21
    1b40:	00003de4 	andeq	r3, r0, r4, ror #27
    1b44:	50100e58 	andspl	r0, r0, r8, asr lr
    1b48:	00001721 	andeq	r1, r0, r1, lsr #14
    1b4c:	00003e5c 	andeq	r3, r0, ip, asr lr
    1b50:	501009ec 	andspl	r0, r0, ip, ror #19
    1b54:	00003e48 	andeq	r3, r0, r8, asr #28
    1b58:	50100f68 	andspl	r0, r0, r8, ror #30
    1b5c:	00000b95 	muleq	r0, r5, fp
    1b60:	50100f94 	mulspl	r0, r4, pc	; <UNPREDICTABLE>
    1b64:	50100a08 	andspl	r0, r0, r8, lsl #20
    1b68:	00001705 	andeq	r1, r0, r5, lsl #14
    1b6c:	50110000 	andspl	r0, r1, r0
    1b70:	50110084 	andspl	r0, r1, r4, lsl #1
    1b74:	20010000 	andcs	r0, r1, r0
    1b78:	000113f0 	strdeq	r1, [r1], -r0
    1b7c:	50110090 	mulspl	r1, r0, r0
    1b80:	e000e280 	and	lr, r0, r0, lsl #5
    1b84:	e000e100 	and	lr, r0, r0, lsl #2

00001b88 <_usb_boot_reboot_wrapper>:
    1b88:	4b02      	ldr	r3, [pc, #8]	; (1b94 <_usb_boot_reboot_wrapper+0xc>)
    1b8a:	b510      	push	{r4, lr}
    1b8c:	68d8      	ldr	r0, [r3, #12]
    1b8e:	6919      	ldr	r1, [r3, #16]
    1b90:	f7ff fe9c 	bl	18cc <_usb_boot>
    1b94:	40058000 	andmi	r8, r5, r0

00001b98 <impl_usb_stream_packet_packet_handler>:
    1b98:	4b24      	ldr	r3, [pc, #144]	; (1c2c <impl_usb_stream_packet_packet_handler+0x94>)
    1b9a:	b5f7      	push	{r0, r1, r2, r4, r5, r6, r7, lr}
    1b9c:	681a      	ldr	r2, [r3, #0]
    1b9e:	4b24      	ldr	r3, [pc, #144]	; (1c30 <impl_usb_stream_packet_packet_handler+0x98>)
    1ba0:	6884      	ldr	r4, [r0, #8]
    1ba2:	601a      	str	r2, [r3, #0]
    1ba4:	0002      	movs	r2, r0
    1ba6:	69e5      	ldr	r5, [r4, #28]
    1ba8:	3229      	adds	r2, #41	; 0x29
    1baa:	6963      	ldr	r3, [r4, #20]
    1bac:	7812      	ldrb	r2, [r2, #0]
    1bae:	1e6e      	subs	r6, r5, #1
    1bb0:	401e      	ands	r6, r3
    1bb2:	9201      	str	r2, [sp, #4]
    1bb4:	2a00      	cmp	r2, #0
    1bb6:	d015      	beq.n	1be4 <impl_usb_stream_packet_packet_handler+0x4c>
    1bb8:	2e00      	cmp	r6, #0
    1bba:	d003      	beq.n	1bc4 <impl_usb_stream_packet_packet_handler+0x2c>
    1bbc:	0020      	movs	r0, r4
    1bbe:	f7ff f915 	bl	dec <usb_stream_packet_handler_complete>
    1bc2:	bdf7      	pop	{r0, r1, r2, r4, r5, r6, r7, pc}
    1bc4:	69a2      	ldr	r2, [r4, #24]
    1bc6:	1959      	adds	r1, r3, r5
    1bc8:	4291      	cmp	r1, r2
    1bca:	d900      	bls.n	1bce <impl_usb_stream_packet_packet_handler+0x36>
    1bcc:	1ad5      	subs	r5, r2, r3
    1bce:	2d00      	cmp	r5, #0
    1bd0:	d0f4      	beq.n	1bbc <impl_usb_stream_packet_packet_handler+0x24>
    1bd2:	6aa3      	ldr	r3, [r4, #40]	; 0x28
    1bd4:	4a17      	ldr	r2, [pc, #92]	; (1c34 <impl_usb_stream_packet_packet_handler+0x9c>)
    1bd6:	791b      	ldrb	r3, [r3, #4]
    1bd8:	0028      	movs	r0, r5
    1bda:	5ad3      	ldrh	r3, [r2, r3]
    1bdc:	4798      	blx	r3
    1bde:	2800      	cmp	r0, #0
    1be0:	d0ec      	beq.n	1bbc <impl_usb_stream_packet_packet_handler+0x24>
    1be2:	e7ee      	b.n	1bc2 <impl_usb_stream_packet_packet_handler+0x2a>
    1be4:	f7fe fcf2 	bl	5cc <usb_current_packet_buffer>
    1be8:	6961      	ldr	r1, [r4, #20]
    1bea:	69a2      	ldr	r2, [r4, #24]
    1bec:	3140      	adds	r1, #64	; 0x40
    1bee:	0007      	movs	r7, r0
    1bf0:	69e3      	ldr	r3, [r4, #28]
    1bf2:	4291      	cmp	r1, r2
    1bf4:	d312      	bcc.n	1c1c <impl_usb_stream_packet_packet_handler+0x84>
    1bf6:	0015      	movs	r5, r2
    1bf8:	1e59      	subs	r1, r3, #1
    1bfa:	400d      	ands	r5, r1
    1bfc:	420a      	tst	r2, r1
    1bfe:	d100      	bne.n	1c02 <impl_usb_stream_packet_packet_handler+0x6a>
    1c00:	001d      	movs	r5, r3
    1c02:	2e00      	cmp	r6, #0
    1c04:	d103      	bne.n	1c0e <impl_usb_stream_packet_packet_handler+0x76>
    1c06:	69e1      	ldr	r1, [r4, #28]
    1c08:	6a20      	ldr	r0, [r4, #32]
    1c0a:	f7ff f997 	bl	f3c <memset0>
    1c0e:	6a23      	ldr	r3, [r4, #32]
    1c10:	793a      	ldrb	r2, [r7, #4]
    1c12:	6839      	ldr	r1, [r7, #0]
    1c14:	1998      	adds	r0, r3, r6
    1c16:	f000 fd01 	bl	261c <__memcpy>
    1c1a:	e7d8      	b.n	1bce <impl_usb_stream_packet_packet_handler+0x36>
    1c1c:	001d      	movs	r5, r3
    1c1e:	0033      	movs	r3, r6
    1c20:	3340      	adds	r3, #64	; 0x40
    1c22:	42ab      	cmp	r3, r5
    1c24:	d2ed      	bcs.n	1c02 <impl_usb_stream_packet_packet_handler+0x6a>
    1c26:	9d01      	ldr	r5, [sp, #4]
    1c28:	e7eb      	b.n	1c02 <impl_usb_stream_packet_packet_handler+0x6a>
    1c2a:	46c0      	nop			; (mov r8, r8)
    1c2c:	50100f64 	andspl	r0, r0, r4, ror #30
    1c30:	d0000014 	andle	r0, r0, r4, lsl r0
    1c34:	0000046c 	andeq	r0, r0, ip, ror #8

00001c38 <impl_msc_cmd_packet>:
    1c38:	b5f8      	push	{r3, r4, r5, r6, r7, lr}
    1c3a:	0006      	movs	r6, r0
    1c3c:	f7fe fcc6 	bl	5cc <usb_current_packet_buffer>
    1c40:	7903      	ldrb	r3, [r0, #4]
    1c42:	2b1f      	cmp	r3, #31
    1c44:	d000      	beq.n	1c48 <impl_msc_cmd_packet+0x10>
    1c46:	e0a0      	b.n	1d8a <impl_msc_cmd_packet+0x152>
    1c48:	6805      	ldr	r5, [r0, #0]
    1c4a:	4b55      	ldr	r3, [pc, #340]	; (1da0 <impl_msc_cmd_packet+0x168>)
    1c4c:	682a      	ldr	r2, [r5, #0]
    1c4e:	429a      	cmp	r2, r3
    1c50:	d000      	beq.n	1c54 <impl_msc_cmd_packet+0x1c>
    1c52:	e09a      	b.n	1d8a <impl_msc_cmd_packet+0x152>
    1c54:	7b6b      	ldrb	r3, [r5, #13]
    1c56:	2b00      	cmp	r3, #0
    1c58:	d000      	beq.n	1c5c <impl_msc_cmd_packet+0x24>
    1c5a:	e096      	b.n	1d8a <impl_msc_cmd_packet+0x152>
    1c5c:	7b29      	ldrb	r1, [r5, #12]
    1c5e:	337f      	adds	r3, #127	; 0x7f
    1c60:	000a      	movs	r2, r1
    1c62:	401a      	ands	r2, r3
    1c64:	4219      	tst	r1, r3
    1c66:	d000      	beq.n	1c6a <impl_msc_cmd_packet+0x32>
    1c68:	e08f      	b.n	1d8a <impl_msc_cmd_packet+0x152>
    1c6a:	7bab      	ldrb	r3, [r5, #14]
    1c6c:	3b01      	subs	r3, #1
    1c6e:	2b0f      	cmp	r3, #15
    1c70:	d900      	bls.n	1c74 <impl_msc_cmd_packet+0x3c>
    1c72:	e08a      	b.n	1d8a <impl_msc_cmd_packet+0x152>
    1c74:	4c4b      	ldr	r4, [pc, #300]	; (1da4 <impl_msc_cmd_packet+0x16c>)
    1c76:	4b4c      	ldr	r3, [pc, #304]	; (1da8 <impl_msc_cmd_packet+0x170>)
    1c78:	6023      	str	r3, [r4, #0]
    1c7a:	686b      	ldr	r3, [r5, #4]
    1c7c:	6063      	str	r3, [r4, #4]
    1c7e:	68ab      	ldr	r3, [r5, #8]
    1c80:	60a3      	str	r3, [r4, #8]
    1c82:	7beb      	ldrb	r3, [r5, #15]
    1c84:	2b03      	cmp	r3, #3
    1c86:	d002      	beq.n	1c8e <impl_msc_cmd_packet+0x56>
    1c88:	73e2      	strb	r2, [r4, #15]
    1c8a:	7662      	strb	r2, [r4, #25]
    1c8c:	76a2      	strb	r2, [r4, #26]
    1c8e:	2700      	movs	r7, #0
    1c90:	7327      	strb	r7, [r4, #12]
    1c92:	2b23      	cmp	r3, #35	; 0x23
    1c94:	d047      	beq.n	1d26 <impl_msc_cmd_packet+0xee>
    1c96:	d818      	bhi.n	1cca <impl_msc_cmd_packet+0x92>
    1c98:	2b1a      	cmp	r3, #26
    1c9a:	d03b      	beq.n	1d14 <impl_msc_cmd_packet+0xdc>
    1c9c:	d80d      	bhi.n	1cba <impl_msc_cmd_packet+0x82>
    1c9e:	2b03      	cmp	r3, #3
    1ca0:	d051      	beq.n	1d46 <impl_msc_cmd_packet+0x10e>
    1ca2:	2b12      	cmp	r3, #18
    1ca4:	d025      	beq.n	1cf2 <impl_msc_cmd_packet+0xba>
    1ca6:	42bb      	cmp	r3, r7
    1ca8:	d05a      	beq.n	1d60 <impl_msc_cmd_packet+0x128>
    1caa:	2301      	movs	r3, #1
    1cac:	7323      	strb	r3, [r4, #12]
    1cae:	3304      	adds	r3, #4
    1cb0:	73e3      	strb	r3, [r4, #15]
    1cb2:	331b      	adds	r3, #27
    1cb4:	7663      	strb	r3, [r4, #25]
    1cb6:	2300      	movs	r3, #0
    1cb8:	e05c      	b.n	1d74 <impl_msc_cmd_packet+0x13c>
    1cba:	2b1b      	cmp	r3, #27
    1cbc:	d05c      	beq.n	1d78 <impl_msc_cmd_packet+0x140>
    1cbe:	2b1e      	cmp	r3, #30
    1cc0:	d1f3      	bne.n	1caa <impl_msc_cmd_packet+0x72>
    1cc2:	0028      	movs	r0, r5
    1cc4:	f7ff fc9c 	bl	1600 <_msc_init_for_dn>
    1cc8:	e00a      	b.n	1ce0 <impl_msc_cmd_packet+0xa8>
    1cca:	2b2a      	cmp	r3, #42	; 0x2a
    1ccc:	d029      	beq.n	1d22 <impl_msc_cmd_packet+0xea>
    1cce:	d80b      	bhi.n	1ce8 <impl_msc_cmd_packet+0xb0>
    1cd0:	2b25      	cmp	r3, #37	; 0x25
    1cd2:	d031      	beq.n	1d38 <impl_msc_cmd_packet+0x100>
    1cd4:	2101      	movs	r1, #1
    1cd6:	2b28      	cmp	r3, #40	; 0x28
    1cd8:	d1e7      	bne.n	1caa <impl_msc_cmd_packet+0x72>
    1cda:	0028      	movs	r0, r5
    1cdc:	f7ff fc0c 	bl	14f8 <_scsi_handle_read_or_write_command>
    1ce0:	0030      	movs	r0, r6
    1ce2:	f7fe fdf5 	bl	8d0 <usb_packet_done>
    1ce6:	bdf8      	pop	{r3, r4, r5, r6, r7, pc}
    1ce8:	2b2f      	cmp	r3, #47	; 0x2f
    1cea:	d0ea      	beq.n	1cc2 <impl_msc_cmd_packet+0x8a>
    1cec:	2b35      	cmp	r3, #53	; 0x35
    1cee:	d0e8      	beq.n	1cc2 <impl_msc_cmd_packet+0x8a>
    1cf0:	e7db      	b.n	1caa <impl_msc_cmd_packet+0x72>
    1cf2:	2124      	movs	r1, #36	; 0x24
    1cf4:	482d      	ldr	r0, [pc, #180]	; (1dac <impl_msc_cmd_packet+0x174>)
    1cf6:	f7ff fb81 	bl	13fc <usb_get_single_packet_response_buffer>
    1cfa:	2119      	movs	r1, #25
    1cfc:	0004      	movs	r4, r0
    1cfe:	482c      	ldr	r0, [pc, #176]	; (1db0 <impl_msc_cmd_packet+0x178>)
    1d00:	0022      	movs	r2, r4
    1d02:	1840      	adds	r0, r0, r1
    1d04:	f000 fc6b 	bl	25de <poor_mans_text_decompress>
    1d08:	2380      	movs	r3, #128	; 0x80
    1d0a:	7063      	strb	r3, [r4, #1]
    1d0c:	0028      	movs	r0, r5
    1d0e:	f7ff fc55 	bl	15bc <_scsi_standard_response>
    1d12:	e7e5      	b.n	1ce0 <impl_msc_cmd_packet+0xa8>
    1d14:	2104      	movs	r1, #4
    1d16:	4825      	ldr	r0, [pc, #148]	; (1dac <impl_msc_cmd_packet+0x174>)
    1d18:	f7ff fb70 	bl	13fc <usb_get_single_packet_response_buffer>
    1d1c:	2303      	movs	r3, #3
    1d1e:	6003      	str	r3, [r0, #0]
    1d20:	e7f4      	b.n	1d0c <impl_msc_cmd_packet+0xd4>
    1d22:	2102      	movs	r1, #2
    1d24:	e7d9      	b.n	1cda <impl_msc_cmd_packet+0xa2>
    1d26:	210c      	movs	r1, #12
    1d28:	4820      	ldr	r0, [pc, #128]	; (1dac <impl_msc_cmd_packet+0x174>)
    1d2a:	f7ff fb67 	bl	13fc <usb_get_single_packet_response_buffer>
    1d2e:	220c      	movs	r2, #12
    1d30:	4920      	ldr	r1, [pc, #128]	; (1db4 <impl_msc_cmd_packet+0x17c>)
    1d32:	f000 fc73 	bl	261c <__memcpy>
    1d36:	e7e9      	b.n	1d0c <impl_msc_cmd_packet+0xd4>
    1d38:	2108      	movs	r1, #8
    1d3a:	481c      	ldr	r0, [pc, #112]	; (1dac <impl_msc_cmd_packet+0x174>)
    1d3c:	f7ff fb5e 	bl	13fc <usb_get_single_packet_response_buffer>
    1d40:	2208      	movs	r2, #8
    1d42:	491d      	ldr	r1, [pc, #116]	; (1db8 <impl_msc_cmd_packet+0x180>)
    1d44:	e7f5      	b.n	1d32 <impl_msc_cmd_packet+0xfa>
    1d46:	2112      	movs	r1, #18
    1d48:	4818      	ldr	r0, [pc, #96]	; (1dac <impl_msc_cmd_packet+0x174>)
    1d4a:	f7ff fb57 	bl	13fc <usb_get_single_packet_response_buffer>
    1d4e:	0021      	movs	r1, r4
    1d50:	2212      	movs	r2, #18
    1d52:	310d      	adds	r1, #13
    1d54:	f000 fc62 	bl	261c <__memcpy>
    1d58:	73e7      	strb	r7, [r4, #15]
    1d5a:	7667      	strb	r7, [r4, #25]
    1d5c:	76a7      	strb	r7, [r4, #26]
    1d5e:	e7d5      	b.n	1d0c <impl_msc_cmd_packet+0xd4>
    1d60:	1de2      	adds	r2, r4, #7
    1d62:	7fd2      	ldrb	r2, [r2, #31]
    1d64:	2a00      	cmp	r2, #0
    1d66:	d0ac      	beq.n	1cc2 <impl_msc_cmd_packet+0x8a>
    1d68:	2201      	movs	r2, #1
    1d6a:	7322      	strb	r2, [r4, #12]
    1d6c:	1892      	adds	r2, r2, r2
    1d6e:	73e2      	strb	r2, [r4, #15]
    1d70:	3238      	adds	r2, #56	; 0x38
    1d72:	7662      	strb	r2, [r4, #25]
    1d74:	76a3      	strb	r3, [r4, #26]
    1d76:	e7a4      	b.n	1cc2 <impl_msc_cmd_packet+0x8a>
    1d78:	2203      	movs	r2, #3
    1d7a:	7ceb      	ldrb	r3, [r5, #19]
    1d7c:	4013      	ands	r3, r2
    1d7e:	2b02      	cmp	r3, #2
    1d80:	d19f      	bne.n	1cc2 <impl_msc_cmd_packet+0x8a>
    1d82:	3407      	adds	r4, #7
    1d84:	3b01      	subs	r3, #1
    1d86:	77e3      	strb	r3, [r4, #31]
    1d88:	e79b      	b.n	1cc2 <impl_msc_cmd_packet+0x8a>
    1d8a:	4c08      	ldr	r4, [pc, #32]	; (1dac <impl_msc_cmd_packet+0x174>)
    1d8c:	2103      	movs	r1, #3
    1d8e:	0020      	movs	r0, r4
    1d90:	f7fe fd3c 	bl	80c <_usb_stall_endpoint>
    1d94:	0020      	movs	r0, r4
    1d96:	2103      	movs	r1, #3
    1d98:	302c      	adds	r0, #44	; 0x2c
    1d9a:	f7fe fd37 	bl	80c <_usb_stall_endpoint>
    1d9e:	e79f      	b.n	1ce0 <impl_msc_cmd_packet+0xa8>
    1da0:	43425355 	movtmi	r5, #9045	; 0x2355
    1da4:	50100a7c 	andspl	r0, r0, ip, ror sl
    1da8:	53425355 	movtpl	r5, #9045	; 0x2355
    1dac:	50100dc0 	andspl	r0, r0, r0, asr #27
    1db0:	00003f3c 	andeq	r3, r0, ip, lsr pc
    1db4:	00003e03 	andeq	r3, r0, r3, lsl #28
    1db8:	00003dfb 	strdeq	r3, [r0], -fp

00001dbc <impl_msc_on_sector_stream_chunk>:
    1dbc:	b510      	push	{r4, lr}
    1dbe:	4b09      	ldr	r3, [pc, #36]	; (1de4 <impl_msc_on_sector_stream_chunk+0x28>)
    1dc0:	4c09      	ldr	r4, [pc, #36]	; (1de8 <impl_msc_on_sector_stream_chunk+0x2c>)
    1dc2:	6a5a      	ldr	r2, [r3, #36]	; 0x24
    1dc4:	3229      	adds	r2, #41	; 0x29
    1dc6:	7812      	ldrb	r2, [r2, #0]
    1dc8:	2a00      	cmp	r2, #0
    1dca:	d100      	bne.n	1dce <impl_msc_on_sector_stream_chunk+0x12>
    1dcc:	4c07      	ldr	r4, [pc, #28]	; (1dec <impl_msc_on_sector_stream_chunk+0x30>)
    1dce:	4a08      	ldr	r2, [pc, #32]	; (1df0 <impl_msc_on_sector_stream_chunk+0x34>)
    1dd0:	6811      	ldr	r1, [r2, #0]
    1dd2:	1c48      	adds	r0, r1, #1
    1dd4:	6ad9      	ldr	r1, [r3, #44]	; 0x2c
    1dd6:	6010      	str	r0, [r2, #0]
    1dd8:	1c4a      	adds	r2, r1, #1
    1dda:	62da      	str	r2, [r3, #44]	; 0x2c
    1ddc:	4a05      	ldr	r2, [pc, #20]	; (1df4 <impl_msc_on_sector_stream_chunk+0x38>)
    1dde:	47a0      	blx	r4
    1de0:	bd10      	pop	{r4, pc}
    1de2:	46c0      	nop			; (mov r8, r8)
    1de4:	50100a4c 	andspl	r0, r0, ip, asr #20
    1de8:	00001029 	andeq	r1, r0, r9, lsr #32
    1dec:	000011b1 			; <UNDEFINED> instruction: 0x000011b1
    1df0:	50100a20 	andspl	r0, r0, r0, lsr #20
    1df4:	50100b1c 	andspl	r0, r0, ip, lsl fp

00001df8 <isr_irq5>:
    1df8:	b5f7      	push	{r0, r1, r2, r4, r5, r6, r7, lr}
    1dfa:	4baa      	ldr	r3, [pc, #680]	; (20a4 <isr_irq5+0x2ac>)
    1dfc:	681b      	ldr	r3, [r3, #0]
    1dfe:	9301      	str	r3, [sp, #4]
    1e00:	03db      	lsls	r3, r3, #15
    1e02:	d400      	bmi.n	1e06 <isr_irq5+0xe>
    1e04:	e088      	b.n	1f18 <isr_irq5+0x120>
    1e06:	f3bf 8f5b 	dmb	ish
    1e0a:	4fa7      	ldr	r7, [pc, #668]	; (20a8 <isr_irq5+0x2b0>)
    1e0c:	2100      	movs	r1, #0
    1e0e:	0038      	movs	r0, r7
    1e10:	2401      	movs	r4, #1
    1e12:	f7fe fddf 	bl	9d4 <_usb_reset_endpoint>
    1e16:	4ea5      	ldr	r6, [pc, #660]	; (20ac <isr_irq5+0x2b4>)
    1e18:	2100      	movs	r1, #0
    1e1a:	0030      	movs	r0, r6
    1e1c:	f7fe fdda 	bl	9d4 <_usb_reset_endpoint>
    1e20:	211f      	movs	r1, #31
    1e22:	1cb3      	adds	r3, r6, #2
    1e24:	77dc      	strb	r4, [r3, #31]
    1e26:	4aa2      	ldr	r2, [pc, #648]	; (20b0 <isr_irq5+0x2b8>)
    1e28:	1cbb      	adds	r3, r7, #2
    1e2a:	77dc      	strb	r4, [r3, #31]
    1e2c:	7813      	ldrb	r3, [r2, #0]
    1e2e:	0015      	movs	r5, r2
    1e30:	4019      	ands	r1, r3
    1e32:	42a1      	cmp	r1, r4
    1e34:	d100      	bne.n	1e38 <isr_irq5+0x40>
    1e36:	e0a2      	b.n	1f7e <isr_irq5+0x186>
    1e38:	2902      	cmp	r1, #2
    1e3a:	d100      	bne.n	1e3e <isr_irq5+0x46>
    1e3c:	e0ca      	b.n	1fd4 <isr_irq5+0x1dc>
    1e3e:	2900      	cmp	r1, #0
    1e40:	d157      	bne.n	1ef2 <isr_irq5+0xfa>
    1e42:	3160      	adds	r1, #96	; 0x60
    1e44:	420b      	tst	r3, r1
    1e46:	d154      	bne.n	1ef2 <isr_irq5+0xfa>
    1e48:	b25b      	sxtb	r3, r3
    1e4a:	2b00      	cmp	r3, #0
    1e4c:	da4c      	bge.n	1ee8 <isr_irq5+0xf0>
    1e4e:	0038      	movs	r0, r7
    1e50:	f7fe fbbc 	bl	5cc <usb_current_packet_buffer>
    1e54:	786b      	ldrb	r3, [r5, #1]
    1e56:	0007      	movs	r7, r0
    1e58:	6806      	ldr	r6, [r0, #0]
    1e5a:	2b06      	cmp	r3, #6
    1e5c:	d00d      	beq.n	1e7a <isr_irq5+0x82>
    1e5e:	2b08      	cmp	r3, #8
    1e60:	d03e      	beq.n	1ee0 <isr_irq5+0xe8>
    1e62:	2b00      	cmp	r3, #0
    1e64:	d145      	bne.n	1ef2 <isr_irq5+0xfa>
    1e66:	8033      	strh	r3, [r6, #0]
    1e68:	1924      	adds	r4, r4, r4
    1e6a:	88eb      	ldrh	r3, [r5, #6]
    1e6c:	42a3      	cmp	r3, r4
    1e6e:	dd00      	ble.n	1e72 <isr_irq5+0x7a>
    1e70:	0023      	movs	r3, r4
    1e72:	713b      	strb	r3, [r7, #4]
    1e74:	f7fe fc96 	bl	7a4 <usb_start_single_buffer_control_in_transfer>
    1e78:	e04a      	b.n	1f10 <isr_irq5+0x118>
    1e7a:	8868      	ldrh	r0, [r5, #2]
    1e7c:	0a03      	lsrs	r3, r0, #8
    1e7e:	2b02      	cmp	r3, #2
    1e80:	d00d      	beq.n	1e9e <isr_irq5+0xa6>
    1e82:	2b03      	cmp	r3, #3
    1e84:	d016      	beq.n	1eb4 <isr_irq5+0xbc>
    1e86:	2b01      	cmp	r3, #1
    1e88:	d133      	bne.n	1ef2 <isr_irq5+0xfa>
    1e8a:	4b8a      	ldr	r3, [pc, #552]	; (20b4 <isr_irq5+0x2bc>)
    1e8c:	2412      	movs	r4, #18
    1e8e:	6819      	ldr	r1, [r3, #0]
    1e90:	2900      	cmp	r1, #0
    1e92:	d0ea      	beq.n	1e6a <isr_irq5+0x72>
    1e94:	0022      	movs	r2, r4
    1e96:	0030      	movs	r0, r6
    1e98:	f000 fbc0 	bl	261c <__memcpy>
    1e9c:	e7e5      	b.n	1e6a <isr_irq5+0x72>
    1e9e:	b2c0      	uxtb	r0, r0
    1ea0:	2800      	cmp	r0, #0
    1ea2:	d126      	bne.n	1ef2 <isr_irq5+0xfa>
    1ea4:	4b83      	ldr	r3, [pc, #524]	; (20b4 <isr_irq5+0x2bc>)
    1ea6:	68d9      	ldr	r1, [r3, #12]
    1ea8:	78cc      	ldrb	r4, [r1, #3]
    1eaa:	788b      	ldrb	r3, [r1, #2]
    1eac:	0224      	lsls	r4, r4, #8
    1eae:	431c      	orrs	r4, r3
    1eb0:	d0db      	beq.n	1e6a <isr_irq5+0x72>
    1eb2:	e7ef      	b.n	1e94 <isr_irq5+0x9c>
    1eb4:	b2c0      	uxtb	r0, r0
    1eb6:	2800      	cmp	r0, #0
    1eb8:	d00f      	beq.n	1eda <isr_irq5+0xe2>
    1eba:	4b7e      	ldr	r3, [pc, #504]	; (20b4 <isr_irq5+0x2bc>)
    1ebc:	2402      	movs	r4, #2
    1ebe:	689b      	ldr	r3, [r3, #8]
    1ec0:	4798      	blx	r3
    1ec2:	3001      	adds	r0, #1
    1ec4:	1e43      	subs	r3, r0, #1
    1ec6:	781b      	ldrb	r3, [r3, #0]
    1ec8:	2b00      	cmp	r3, #0
    1eca:	d103      	bne.n	1ed4 <isr_irq5+0xdc>
    1ecc:	3303      	adds	r3, #3
    1ece:	7034      	strb	r4, [r6, #0]
    1ed0:	7073      	strb	r3, [r6, #1]
    1ed2:	e7ca      	b.n	1e6a <isr_irq5+0x72>
    1ed4:	5333      	strh	r3, [r6, r4]
    1ed6:	3402      	adds	r4, #2
    1ed8:	e7f3      	b.n	1ec2 <isr_irq5+0xca>
    1eda:	2404      	movs	r4, #4
    1edc:	4976      	ldr	r1, [pc, #472]	; (20b8 <isr_irq5+0x2c0>)
    1ede:	e7d9      	b.n	1e94 <isr_irq5+0x9c>
    1ee0:	4b74      	ldr	r3, [pc, #464]	; (20b4 <isr_irq5+0x2bc>)
    1ee2:	7d5b      	ldrb	r3, [r3, #21]
    1ee4:	7033      	strb	r3, [r6, #0]
    1ee6:	e7c0      	b.n	1e6a <isr_irq5+0x72>
    1ee8:	7853      	ldrb	r3, [r2, #1]
    1eea:	2b05      	cmp	r3, #5
    1eec:	d004      	beq.n	1ef8 <isr_irq5+0x100>
    1eee:	2b09      	cmp	r3, #9
    1ef0:	d038      	beq.n	1f64 <isr_irq5+0x16c>
    1ef2:	f7fe fd59 	bl	9a8 <usb_stall_control_pipe.constprop.0>
    1ef6:	e00b      	b.n	1f10 <isr_irq5+0x118>
    1ef8:	2302      	movs	r3, #2
    1efa:	56d3      	ldrsb	r3, [r2, r3]
    1efc:	8851      	ldrh	r1, [r2, #2]
    1efe:	2b00      	cmp	r3, #0
    1f00:	ddf7      	ble.n	1ef2 <isr_irq5+0xfa>
    1f02:	4b6c      	ldr	r3, [pc, #432]	; (20b4 <isr_irq5+0x2bc>)
    1f04:	0038      	movs	r0, r7
    1f06:	7599      	strb	r1, [r3, #22]
    1f08:	4a6c      	ldr	r2, [pc, #432]	; (20bc <isr_irq5+0x2c4>)
    1f0a:	496d      	ldr	r1, [pc, #436]	; (20c0 <isr_irq5+0x2c8>)
    1f0c:	f7fe fc1c 	bl	748 <usb_start_empty_transfer>
    1f10:	2280      	movs	r2, #128	; 0x80
    1f12:	4b6c      	ldr	r3, [pc, #432]	; (20c4 <isr_irq5+0x2cc>)
    1f14:	0292      	lsls	r2, r2, #10
    1f16:	651a      	str	r2, [r3, #80]	; 0x50
    1f18:	9b01      	ldr	r3, [sp, #4]
    1f1a:	06db      	lsls	r3, r3, #27
    1f1c:	d50a      	bpl.n	1f34 <isr_irq5+0x13c>
    1f1e:	2600      	movs	r6, #0
    1f20:	2401      	movs	r4, #1
    1f22:	4f69      	ldr	r7, [pc, #420]	; (20c8 <isr_irq5+0x2d0>)
    1f24:	6dbd      	ldr	r5, [r7, #88]	; 0x58
    1f26:	2d00      	cmp	r5, #0
    1f28:	d004      	beq.n	1f34 <isr_irq5+0x13c>
    1f2a:	2e0a      	cmp	r6, #10
    1f2c:	d000      	beq.n	1f30 <isr_irq5+0x138>
    1f2e:	e082      	b.n	2036 <isr_irq5+0x23e>
    1f30:	4b64      	ldr	r3, [pc, #400]	; (20c4 <isr_irq5+0x2cc>)
    1f32:	659d      	str	r5, [r3, #88]	; 0x58
    1f34:	9b01      	ldr	r3, [sp, #4]
    1f36:	04db      	lsls	r3, r3, #19
    1f38:	d505      	bpl.n	1f46 <isr_irq5+0x14e>
    1f3a:	f7fe ffc7 	bl	ecc <_usb_handle_bus_reset>
    1f3e:	2280      	movs	r2, #128	; 0x80
    1f40:	4b60      	ldr	r3, [pc, #384]	; (20c4 <isr_irq5+0x2cc>)
    1f42:	0312      	lsls	r2, r2, #12
    1f44:	651a      	str	r2, [r3, #80]	; 0x50
    1f46:	23f8      	movs	r3, #248	; 0xf8
    1f48:	9a01      	ldr	r2, [sp, #4]
    1f4a:	009b      	lsls	r3, r3, #2
    1f4c:	421a      	tst	r2, r3
    1f4e:	d008      	beq.n	1f62 <isr_irq5+0x16a>
    1f50:	4b5d      	ldr	r3, [pc, #372]	; (20c8 <isr_irq5+0x2d0>)
    1f52:	6d1b      	ldr	r3, [r3, #80]	; 0x50
    1f54:	2b00      	cmp	r3, #0
    1f56:	db00      	blt.n	1f5a <isr_irq5+0x162>
    1f58:	e07e      	b.n	2058 <isr_irq5+0x260>
    1f5a:	2280      	movs	r2, #128	; 0x80
    1f5c:	4b59      	ldr	r3, [pc, #356]	; (20c4 <isr_irq5+0x2cc>)
    1f5e:	0612      	lsls	r2, r2, #24
    1f60:	651a      	str	r2, [r3, #80]	; 0x50
    1f62:	bdf7      	pop	{r0, r1, r2, r4, r5, r6, r7, pc}
    1f64:	7890      	ldrb	r0, [r2, #2]
    1f66:	2800      	cmp	r0, #0
    1f68:	d004      	beq.n	1f74 <isr_irq5+0x17c>
    1f6a:	4b52      	ldr	r3, [pc, #328]	; (20b4 <isr_irq5+0x2bc>)
    1f6c:	68db      	ldr	r3, [r3, #12]
    1f6e:	795b      	ldrb	r3, [r3, #5]
    1f70:	4283      	cmp	r3, r0
    1f72:	d1be      	bne.n	1ef2 <isr_irq5+0xfa>
    1f74:	f7fe ff8e 	bl	e94 <_usb_handle_set_config>
    1f78:	f7fe fbfc 	bl	774 <usb_start_empty_control_in_transfer_null_completion>
    1f7c:	e7c8      	b.n	1f10 <isr_irq5+0x118>
    1f7e:	8893      	ldrh	r3, [r2, #4]
    1f80:	4a4c      	ldr	r2, [pc, #304]	; (20b4 <isr_irq5+0x2bc>)
    1f82:	7d51      	ldrb	r1, [r2, #21]
    1f84:	2900      	cmp	r1, #0
    1f86:	d0b4      	beq.n	1ef2 <isr_irq5+0xfa>
    1f88:	21fe      	movs	r1, #254	; 0xfe
    1f8a:	420b      	tst	r3, r1
    1f8c:	d1b1      	bne.n	1ef2 <isr_irq5+0xfa>
    1f8e:	6912      	ldr	r2, [r2, #16]
    1f90:	b2db      	uxtb	r3, r3
    1f92:	009b      	lsls	r3, r3, #2
    1f94:	5898      	ldr	r0, [r3, r2]
    1f96:	2800      	cmp	r0, #0
    1f98:	d0ab      	beq.n	1ef2 <isr_irq5+0xfa>
    1f9a:	6843      	ldr	r3, [r0, #4]
    1f9c:	2b00      	cmp	r3, #0
    1f9e:	d114      	bne.n	1fca <isr_irq5+0x1d2>
    1fa0:	2260      	movs	r2, #96	; 0x60
    1fa2:	782b      	ldrb	r3, [r5, #0]
    1fa4:	4213      	tst	r3, r2
    1fa6:	d1a4      	bne.n	1ef2 <isr_irq5+0xfa>
    1fa8:	88aa      	ldrh	r2, [r5, #4]
    1faa:	0a12      	lsrs	r2, r2, #8
    1fac:	d1a1      	bne.n	1ef2 <isr_irq5+0xfa>
    1fae:	b25b      	sxtb	r3, r3
    1fb0:	2b00      	cmp	r3, #0
    1fb2:	da9e      	bge.n	1ef2 <isr_irq5+0xfa>
    1fb4:	786c      	ldrb	r4, [r5, #1]
    1fb6:	2c00      	cmp	r4, #0
    1fb8:	d19b      	bne.n	1ef2 <isr_irq5+0xfa>
    1fba:	0038      	movs	r0, r7
    1fbc:	f7fe fb06 	bl	5cc <usb_current_packet_buffer>
    1fc0:	6803      	ldr	r3, [r0, #0]
    1fc2:	601c      	str	r4, [r3, #0]
    1fc4:	2302      	movs	r3, #2
    1fc6:	7103      	strb	r3, [r0, #4]
    1fc8:	e754      	b.n	1e74 <isr_irq5+0x7c>
    1fca:	0029      	movs	r1, r5
    1fcc:	4798      	blx	r3
    1fce:	2800      	cmp	r0, #0
    1fd0:	d19e      	bne.n	1f10 <isr_irq5+0x118>
    1fd2:	e7e5      	b.n	1fa0 <isr_irq5+0x1a8>
    1fd4:	8892      	ldrh	r2, [r2, #4]
    1fd6:	2a00      	cmp	r2, #0
    1fd8:	d041      	beq.n	205e <isr_irq5+0x266>
    1fda:	2a80      	cmp	r2, #128	; 0x80
    1fdc:	d060      	beq.n	20a0 <isr_irq5+0x2a8>
    1fde:	4935      	ldr	r1, [pc, #212]	; (20b4 <isr_irq5+0x2bc>)
    1fe0:	7d49      	ldrb	r1, [r1, #21]
    1fe2:	2900      	cmp	r1, #0
    1fe4:	d100      	bne.n	1fe8 <isr_irq5+0x1f0>
    1fe6:	e784      	b.n	1ef2 <isr_irq5+0xfa>
    1fe8:	4938      	ldr	r1, [pc, #224]	; (20cc <isr_irq5+0x2d4>)
    1fea:	00a0      	lsls	r0, r4, #2
    1fec:	5840      	ldr	r0, [r0, r1]
    1fee:	6806      	ldr	r6, [r0, #0]
    1ff0:	78b6      	ldrb	r6, [r6, #2]
    1ff2:	42b2      	cmp	r2, r6
    1ff4:	d034      	beq.n	2060 <isr_irq5+0x268>
    1ff6:	3401      	adds	r4, #1
    1ff8:	2c05      	cmp	r4, #5
    1ffa:	d1f6      	bne.n	1fea <isr_irq5+0x1f2>
    1ffc:	e779      	b.n	1ef2 <isr_irq5+0xfa>
    1ffe:	7869      	ldrb	r1, [r5, #1]
    2000:	2901      	cmp	r1, #1
    2002:	d00a      	beq.n	201a <isr_irq5+0x222>
    2004:	2903      	cmp	r1, #3
    2006:	d000      	beq.n	200a <isr_irq5+0x212>
    2008:	e773      	b.n	1ef2 <isr_irq5+0xfa>
    200a:	886b      	ldrh	r3, [r5, #2]
    200c:	2b00      	cmp	r3, #0
    200e:	d000      	beq.n	2012 <isr_irq5+0x21a>
    2010:	e76f      	b.n	1ef2 <isr_irq5+0xfa>
    2012:	2102      	movs	r1, #2
    2014:	f7fe fbfa 	bl	80c <_usb_stall_endpoint>
    2018:	e7ae      	b.n	1f78 <isr_irq5+0x180>
    201a:	886b      	ldrh	r3, [r5, #2]
    201c:	2b00      	cmp	r3, #0
    201e:	d000      	beq.n	2022 <isr_irq5+0x22a>
    2020:	e767      	b.n	1ef2 <isr_irq5+0xfa>
    2022:	1dc2      	adds	r2, r0, #7
    2024:	7fd2      	ldrb	r2, [r2, #31]
    2026:	2a02      	cmp	r2, #2
    2028:	d802      	bhi.n	2030 <isr_irq5+0x238>
    202a:	f7fe fcd3 	bl	9d4 <_usb_reset_endpoint>
    202e:	e7a3      	b.n	1f78 <isr_irq5+0x180>
    2030:	3002      	adds	r0, #2
    2032:	77c3      	strb	r3, [r0, #31]
    2034:	e7a0      	b.n	1f78 <isr_irq5+0x180>
    2036:	422c      	tst	r4, r5
    2038:	d00b      	beq.n	2052 <isr_irq5+0x25a>
    203a:	2101      	movs	r1, #1
    203c:	6dfa      	ldr	r2, [r7, #92]	; 0x5c
    203e:	4b21      	ldr	r3, [pc, #132]	; (20c4 <isr_irq5+0x2cc>)
    2040:	4022      	ands	r2, r4
    2042:	659c      	str	r4, [r3, #88]	; 0x58
    2044:	0870      	lsrs	r0, r6, #1
    2046:	1e53      	subs	r3, r2, #1
    2048:	419a      	sbcs	r2, r3
    204a:	43b1      	bics	r1, r6
    204c:	f7fe fc06 	bl	85c <_usb_handle_transfer>
    2050:	43a5      	bics	r5, r4
    2052:	0064      	lsls	r4, r4, #1
    2054:	3601      	adds	r6, #1
    2056:	e766      	b.n	1f26 <isr_irq5+0x12e>
    2058:	f7fe ff38 	bl	ecc <_usb_handle_bus_reset>
    205c:	e781      	b.n	1f62 <isr_irq5+0x16a>
    205e:	0030      	movs	r0, r6
    2060:	2260      	movs	r2, #96	; 0x60
    2062:	4213      	tst	r3, r2
    2064:	d000      	beq.n	2068 <isr_irq5+0x270>
    2066:	e744      	b.n	1ef2 <isr_irq5+0xfa>
    2068:	b25b      	sxtb	r3, r3
    206a:	2b00      	cmp	r3, #0
    206c:	dac7      	bge.n	1ffe <isr_irq5+0x206>
    206e:	786b      	ldrb	r3, [r5, #1]
    2070:	2b00      	cmp	r3, #0
    2072:	d000      	beq.n	2076 <isr_irq5+0x27e>
    2074:	e73d      	b.n	1ef2 <isr_irq5+0xfa>
    2076:	886b      	ldrh	r3, [r5, #2]
    2078:	2b00      	cmp	r3, #0
    207a:	d000      	beq.n	207e <isr_irq5+0x286>
    207c:	e739      	b.n	1ef2 <isr_irq5+0xfa>
    207e:	88ec      	ldrh	r4, [r5, #6]
    2080:	2c02      	cmp	r4, #2
    2082:	d000      	beq.n	2086 <isr_irq5+0x28e>
    2084:	e735      	b.n	1ef2 <isr_irq5+0xfa>
    2086:	2501      	movs	r5, #1
    2088:	3007      	adds	r0, #7
    208a:	7fc3      	ldrb	r3, [r0, #31]
    208c:	0038      	movs	r0, r7
    208e:	429d      	cmp	r5, r3
    2090:	41ad      	sbcs	r5, r5
    2092:	f7fe fa9b 	bl	5cc <usb_current_packet_buffer>
    2096:	6803      	ldr	r3, [r0, #0]
    2098:	426d      	negs	r5, r5
    209a:	601d      	str	r5, [r3, #0]
    209c:	7104      	strb	r4, [r0, #4]
    209e:	e6e9      	b.n	1e74 <isr_irq5+0x7c>
    20a0:	0038      	movs	r0, r7
    20a2:	e7dd      	b.n	2060 <isr_irq5+0x268>
    20a4:	50110098 	mulspl	r1, r8, r0
    20a8:	50100f68 	andspl	r0, r0, r8, ror #30
    20ac:	50100f94 	mulspl	r0, r4, pc	; <UNPREDICTABLE>
    20b0:	50100000 	andspl	r0, r0, r0
    20b4:	501009ec 	andspl	r0, r0, ip, ror #19
    20b8:	00003f2e 	andeq	r3, r0, lr, lsr #30
    20bc:	0000048d 	andeq	r0, r0, sp, lsl #9
    20c0:	501009c4 	andspl	r0, r0, r4, asr #19
    20c4:	50113000 	andspl	r3, r1, r0
    20c8:	50110000 	andspl	r0, r1, r0
    20cc:	50100a08 	andspl	r0, r0, r8, lsl #20

000020d0 <impl_usb_transfer_current_packet_only>:
    20d0:	b510      	push	{r4, lr}
    20d2:	f7fe fbfd 	bl	8d0 <usb_packet_done>
    20d6:	bd10      	pop	{r4, pc}

000020d8 <async_task_worker>:
    20d8:	b5f8      	push	{r3, r4, r5, r6, r7, lr}
    20da:	4a1a      	ldr	r2, [pc, #104]	; (2144 <async_task_worker+0x6c>)
    20dc:	4b1a      	ldr	r3, [pc, #104]	; (2148 <async_task_worker+0x70>)
    20de:	601a      	str	r2, [r3, #0]
    20e0:	f3ef 8510 	mrs	r5, PRIMASK
    20e4:	b672      	cpsid	i
    20e6:	f3bf 8f5b 	dmb	ish
    20ea:	4c18      	ldr	r4, [pc, #96]	; (214c <async_task_worker+0x74>)
    20ec:	0027      	movs	r7, r4
    20ee:	3728      	adds	r7, #40	; 0x28
    20f0:	783b      	ldrb	r3, [r7, #0]
    20f2:	b2de      	uxtb	r6, r3
    20f4:	2b00      	cmp	r3, #0
    20f6:	d113      	bne.n	2120 <async_task_worker+0x48>
    20f8:	f385 8810 	msr	PRIMASK, r5
    20fc:	f3ef 8510 	mrs	r5, PRIMASK
    2100:	b672      	cpsid	i
    2102:	f3bf 8f5b 	dmb	ish
    2106:	4c12      	ldr	r4, [pc, #72]	; (2150 <async_task_worker+0x78>)
    2108:	0027      	movs	r7, r4
    210a:	3728      	adds	r7, #40	; 0x28
    210c:	783b      	ldrb	r3, [r7, #0]
    210e:	2b00      	cmp	r3, #0
    2110:	d013      	beq.n	213a <async_task_worker+0x62>
    2112:	2228      	movs	r2, #40	; 0x28
    2114:	0021      	movs	r1, r4
    2116:	480f      	ldr	r0, [pc, #60]	; (2154 <async_task_worker+0x7c>)
    2118:	f000 fa80 	bl	261c <__memcpy>
    211c:	703e      	strb	r6, [r7, #0]
    211e:	e006      	b.n	212e <async_task_worker+0x56>
    2120:	2228      	movs	r2, #40	; 0x28
    2122:	0021      	movs	r1, r4
    2124:	480b      	ldr	r0, [pc, #44]	; (2154 <async_task_worker+0x7c>)
    2126:	f000 fa79 	bl	261c <__memcpy>
    212a:	2300      	movs	r3, #0
    212c:	703b      	strb	r3, [r7, #0]
    212e:	f385 8810 	msr	PRIMASK, r5
    2132:	0020      	movs	r0, r4
    2134:	f7fe fd52 	bl	bdc <execute_task.constprop.0>
    2138:	e7d2      	b.n	20e0 <async_task_worker+0x8>
    213a:	f385 8810 	msr	PRIMASK, r5
    213e:	bf20      	wfe
    2140:	e7ce      	b.n	20e0 <async_task_worker+0x8>
    2142:	46c0      	nop			; (mov r8, r8)
    2144:	00003ec4 	andeq	r3, r0, r4, asr #29
    2148:	50100dbc 			; <UNDEFINED> instruction: 0x50100dbc
    214c:	50100fc0 	andspl	r0, r0, r0, asr #31
    2150:	50100e84 	andspl	r0, r0, r4, lsl #29
    2154:	50100d8c 	andspl	r0, r0, ip, lsl #27

00002158 <impl_picoboot_cmd_packet>:
    2158:	b5f7      	push	{r0, r1, r2, r4, r5, r6, r7, lr}
    215a:	9001      	str	r0, [sp, #4]
    215c:	f7fe fa36 	bl	5cc <usb_current_packet_buffer>
    2160:	7903      	ldrb	r3, [r0, #4]
    2162:	2b20      	cmp	r3, #32
    2164:	d000      	beq.n	2168 <impl_picoboot_cmd_packet+0x10>
    2166:	e09e      	b.n	22a6 <impl_picoboot_cmd_packet+0x14e>
    2168:	6806      	ldr	r6, [r0, #0]
    216a:	4b53      	ldr	r3, [pc, #332]	; (22b8 <impl_picoboot_cmd_packet+0x160>)
    216c:	6832      	ldr	r2, [r6, #0]
    216e:	429a      	cmp	r2, r3
    2170:	d000      	beq.n	2174 <impl_picoboot_cmd_packet+0x1c>
    2172:	e098      	b.n	22a6 <impl_picoboot_cmd_packet+0x14e>
    2174:	4c51      	ldr	r4, [pc, #324]	; (22bc <impl_picoboot_cmd_packet+0x164>)
    2176:	2128      	movs	r1, #40	; 0x28
    2178:	0020      	movs	r0, r4
    217a:	302c      	adds	r0, #44	; 0x2c
    217c:	f7fe fede 	bl	f3c <memset0>
    2180:	4a4f      	ldr	r2, [pc, #316]	; (22c0 <impl_picoboot_cmd_packet+0x168>)
    2182:	6813      	ldr	r3, [r2, #0]
    2184:	3b01      	subs	r3, #1
    2186:	6013      	str	r3, [r2, #0]
    2188:	6872      	ldr	r2, [r6, #4]
    218a:	62e3      	str	r3, [r4, #44]	; 0x2c
    218c:	64e2      	str	r2, [r4, #76]	; 0x4c
    218e:	7a33      	ldrb	r3, [r6, #8]
    2190:	9300      	str	r3, [sp, #0]
    2192:	4b4c      	ldr	r3, [pc, #304]	; (22c4 <impl_picoboot_cmd_packet+0x16c>)
    2194:	9900      	ldr	r1, [sp, #0]
    2196:	601a      	str	r2, [r3, #0]
    2198:	2200      	movs	r2, #0
    219a:	725a      	strb	r2, [r3, #9]
    219c:	3201      	adds	r2, #1
    219e:	605a      	str	r2, [r3, #4]
    21a0:	6932      	ldr	r2, [r6, #16]
    21a2:	7219      	strb	r1, [r3, #8]
    21a4:	63e2      	str	r2, [r4, #60]	; 0x3c
    21a6:	63a2      	str	r2, [r4, #56]	; 0x38
    21a8:	4694      	mov	ip, r2
    21aa:	0022      	movs	r2, r4
    21ac:	6971      	ldr	r1, [r6, #20]
    21ae:	3251      	adds	r2, #81	; 0x51
    21b0:	6421      	str	r1, [r4, #64]	; 0x40
    21b2:	7c30      	ldrb	r0, [r6, #16]
    21b4:	7010      	strb	r0, [r2, #0]
    21b6:	227f      	movs	r2, #127	; 0x7f
    21b8:	9800      	ldr	r0, [sp, #0]
    21ba:	4002      	ands	r2, r0
    21bc:	1e50      	subs	r0, r2, #1
    21be:	2808      	cmp	r0, #8
    21c0:	d900      	bls.n	21c4 <impl_picoboot_cmd_packet+0x6c>
    21c2:	e070      	b.n	22a6 <impl_picoboot_cmd_packet+0x14e>
    21c4:	2003      	movs	r0, #3
    21c6:	4342      	muls	r2, r0
    21c8:	483f      	ldr	r0, [pc, #252]	; (22c8 <impl_picoboot_cmd_packet+0x170>)
    21ca:	7a77      	ldrb	r7, [r6, #9]
    21cc:	5c85      	ldrb	r5, [r0, r2]
    21ce:	42af      	cmp	r7, r5
    21d0:	d161      	bne.n	2296 <impl_picoboot_cmd_packet+0x13e>
    21d2:	2500      	movs	r5, #0
    21d4:	1880      	adds	r0, r0, r2
    21d6:	605d      	str	r5, [r3, #4]
    21d8:	7843      	ldrb	r3, [r0, #1]
    21da:	7840      	ldrb	r0, [r0, #1]
    21dc:	000d      	movs	r5, r1
    21de:	b240      	sxtb	r0, r0
    21e0:	2800      	cmp	r0, #0
    21e2:	db00      	blt.n	21e6 <impl_picoboot_cmd_packet+0x8e>
    21e4:	001d      	movs	r5, r3
    21e6:	68f3      	ldr	r3, [r6, #12]
    21e8:	42ab      	cmp	r3, r5
    21ea:	d156      	bne.n	229a <impl_picoboot_cmd_packet+0x142>
    21ec:	4b36      	ldr	r3, [pc, #216]	; (22c8 <impl_picoboot_cmd_packet+0x170>)
    21ee:	189a      	adds	r2, r3, r2
    21f0:	9b00      	ldr	r3, [sp, #0]
    21f2:	7897      	ldrb	r7, [r2, #2]
    21f4:	2b02      	cmp	r3, #2
    21f6:	d109      	bne.n	220c <impl_picoboot_cmd_packet+0xb4>
    21f8:	4660      	mov	r0, ip
    21fa:	69b2      	ldr	r2, [r6, #24]
    21fc:	f7fe fc12 	bl	a24 <watchdog_reboot>
    2200:	f7fe fc98 	bl	b34 <_picoboot_ack>
    2204:	9801      	ldr	r0, [sp, #4]
    2206:	f7fe fb63 	bl	8d0 <usb_packet_done>
    220a:	bdf7      	pop	{r0, r1, r2, r4, r5, r6, r7, pc}
    220c:	2f00      	cmp	r7, #0
    220e:	d047      	beq.n	22a0 <impl_picoboot_cmd_packet+0x148>
    2210:	0023      	movs	r3, r4
    2212:	3350      	adds	r3, #80	; 0x50
    2214:	701f      	strb	r7, [r3, #0]
    2216:	0023      	movs	r3, r4
    2218:	2202      	movs	r2, #2
    221a:	2601      	movs	r6, #1
    221c:	3352      	adds	r3, #82	; 0x52
    221e:	701a      	strb	r2, [r3, #0]
    2220:	4b28      	ldr	r3, [pc, #160]	; (22c4 <impl_picoboot_cmd_packet+0x16c>)
    2222:	725e      	strb	r6, [r3, #9]
    2224:	2d00      	cmp	r5, #0
    2226:	d028      	beq.n	227a <impl_picoboot_cmd_packet+0x122>
    2228:	4b28      	ldr	r3, [pc, #160]	; (22cc <impl_picoboot_cmd_packet+0x174>)
    222a:	4a29      	ldr	r2, [pc, #164]	; (22d0 <impl_picoboot_cmd_packet+0x178>)
    222c:	6463      	str	r3, [r4, #68]	; 0x44
    222e:	6223      	str	r3, [r4, #32]
    2230:	2380      	movs	r3, #128	; 0x80
    2232:	005b      	lsls	r3, r3, #1
    2234:	61e3      	str	r3, [r4, #28]
    2236:	2300      	movs	r3, #0
    2238:	62a2      	str	r2, [r4, #40]	; 0x28
    223a:	6163      	str	r3, [r4, #20]
    223c:	4a25      	ldr	r2, [pc, #148]	; (22d4 <impl_picoboot_cmd_packet+0x17c>)
    223e:	61a5      	str	r5, [r4, #24]
    2240:	0020      	movs	r0, r4
    2242:	4925      	ldr	r1, [pc, #148]	; (22d8 <impl_picoboot_cmd_packet+0x180>)
    2244:	f7fe f92c 	bl	4a0 <usb_reset_transfer>
    2248:	353f      	adds	r5, #63	; 0x3f
    224a:	68a3      	ldr	r3, [r4, #8]
    224c:	09ad      	lsrs	r5, r5, #6
    224e:	195b      	adds	r3, r3, r5
    2250:	60a3      	str	r3, [r4, #8]
    2252:	68e3      	ldr	r3, [r4, #12]
    2254:	003a      	movs	r2, r7
    2256:	195d      	adds	r5, r3, r5
    2258:	2308      	movs	r3, #8
    225a:	60e5      	str	r5, [r4, #12]
    225c:	401a      	ands	r2, r3
    225e:	421f      	tst	r7, r3
    2260:	d003      	beq.n	226a <impl_picoboot_cmd_packet+0x112>
    2262:	4b1e      	ldr	r3, [pc, #120]	; (22dc <impl_picoboot_cmd_packet+0x184>)
    2264:	6263      	str	r3, [r4, #36]	; 0x24
    2266:	60dc      	str	r4, [r3, #12]
    2268:	e7cc      	b.n	2204 <impl_picoboot_cmd_packet+0xac>
    226a:	481d      	ldr	r0, [pc, #116]	; (22e0 <impl_picoboot_cmd_packet+0x188>)
    226c:	74a6      	strb	r6, [r4, #18]
    226e:	6260      	str	r0, [r4, #36]	; 0x24
    2270:	6084      	str	r4, [r0, #8]
    2272:	60c2      	str	r2, [r0, #12]
    2274:	f7fe fa14 	bl	6a0 <_usb_give_as_many_buffers_as_possible>
    2278:	e7c4      	b.n	2204 <impl_picoboot_cmd_packet+0xac>
    227a:	481a      	ldr	r0, [pc, #104]	; (22e4 <impl_picoboot_cmd_packet+0x18c>)
    227c:	0021      	movs	r1, r4
    227e:	0005      	movs	r5, r0
    2280:	4b19      	ldr	r3, [pc, #100]	; (22e8 <impl_picoboot_cmd_packet+0x190>)
    2282:	3528      	adds	r5, #40	; 0x28
    2284:	6363      	str	r3, [r4, #52]	; 0x34
    2286:	2228      	movs	r2, #40	; 0x28
    2288:	312c      	adds	r1, #44	; 0x2c
    228a:	782b      	ldrb	r3, [r5, #0]
    228c:	f000 f9c6 	bl	261c <__memcpy>
    2290:	702e      	strb	r6, [r5, #0]
    2292:	bf40      	sev
    2294:	e7b6      	b.n	2204 <impl_picoboot_cmd_packet+0xac>
    2296:	2202      	movs	r2, #2
    2298:	e004      	b.n	22a4 <impl_picoboot_cmd_packet+0x14c>
    229a:	9b00      	ldr	r3, [sp, #0]
    229c:	2b02      	cmp	r3, #2
    229e:	d0ab      	beq.n	21f8 <impl_picoboot_cmd_packet+0xa0>
    22a0:	2203      	movs	r2, #3
    22a2:	4b08      	ldr	r3, [pc, #32]	; (22c4 <impl_picoboot_cmd_packet+0x16c>)
    22a4:	605a      	str	r2, [r3, #4]
    22a6:	2102      	movs	r1, #2
    22a8:	480d      	ldr	r0, [pc, #52]	; (22e0 <impl_picoboot_cmd_packet+0x188>)
    22aa:	f7fe faaf 	bl	80c <_usb_stall_endpoint>
    22ae:	2102      	movs	r1, #2
    22b0:	480a      	ldr	r0, [pc, #40]	; (22dc <impl_picoboot_cmd_packet+0x184>)
    22b2:	f7fe faab 	bl	80c <_usb_stall_endpoint>
    22b6:	e7a5      	b.n	2204 <impl_picoboot_cmd_packet+0xac>
    22b8:	431fd10b 	tstmi	pc, #-1073741822	; 0xc0000002
    22bc:	50100ac8 	andspl	r0, r0, r8, asr #21
    22c0:	50100eb0 			; <UNDEFINED> instruction: 0x50100eb0
    22c4:	50100ab8 			; <UNDEFINED> instruction: 0x50100ab8
    22c8:	00003ea4 	andeq	r3, r0, r4, lsr #29
    22cc:	501008c4 	andspl	r0, r0, r4, asr #17
    22d0:	00003de8 	andeq	r3, r0, r8, ror #27
    22d4:	00000b35 	andeq	r0, r0, r5, lsr fp
    22d8:	00003e0f 	andeq	r3, r0, pc, lsl #28
    22dc:	50100e58 	andspl	r0, r0, r8, asr lr
    22e0:	50100e24 	andspl	r0, r0, r4, lsr #28
    22e4:	50100e84 	andspl	r0, r0, r4, lsl #29
    22e8:	00000b65 	andeq	r0, r0, r5, ror #22

000022ec <impl_picoboot_on_stream_chunk>:
    22ec:	b570      	push	{r4, r5, r6, lr}
    22ee:	4c09      	ldr	r4, [pc, #36]	; (2314 <impl_picoboot_on_stream_chunk+0x28>)
    22f0:	4b09      	ldr	r3, [pc, #36]	; (2318 <impl_picoboot_on_stream_chunk+0x2c>)
    22f2:	64a0      	str	r0, [r4, #72]	; 0x48
    22f4:	4809      	ldr	r0, [pc, #36]	; (231c <impl_picoboot_on_stream_chunk+0x30>)
    22f6:	0021      	movs	r1, r4
    22f8:	0005      	movs	r5, r0
    22fa:	6363      	str	r3, [r4, #52]	; 0x34
    22fc:	3528      	adds	r5, #40	; 0x28
    22fe:	2228      	movs	r2, #40	; 0x28
    2300:	312c      	adds	r1, #44	; 0x2c
    2302:	782b      	ldrb	r3, [r5, #0]
    2304:	f000 f98a 	bl	261c <__memcpy>
    2308:	2001      	movs	r0, #1
    230a:	7028      	strb	r0, [r5, #0]
    230c:	bf40      	sev
    230e:	3453      	adds	r4, #83	; 0x53
    2310:	7020      	strb	r0, [r4, #0]
    2312:	bd70      	pop	{r4, r5, r6, pc}
    2314:	50100ac8 	andspl	r0, r0, r8, asr #21
    2318:	00000e59 	andeq	r0, r0, r9, asr lr
    231c:	50100e84 	andspl	r0, r0, r4, lsl #29

00002320 <flash_enter_cmd_xip>:
    2320:	23c0      	movs	r3, #192	; 0xc0
    2322:	2200      	movs	r2, #0
    2324:	055b      	lsls	r3, r3, #21
    2326:	609a      	str	r2, [r3, #8]
    2328:	4a04      	ldr	r2, [pc, #16]	; (233c <flash_enter_cmd_xip+0x1c>)
    232a:	4905      	ldr	r1, [pc, #20]	; (2340 <flash_enter_cmd_xip+0x20>)
    232c:	601a      	str	r2, [r3, #0]
    232e:	001a      	movs	r2, r3
    2330:	32f4      	adds	r2, #244	; 0xf4
    2332:	6011      	str	r1, [r2, #0]
    2334:	2201      	movs	r2, #1
    2336:	609a      	str	r2, [r3, #8]
    2338:	4770      	bx	lr
    233a:	46c0      	nop			; (mov r8, r8)
    233c:	001f0300 	andseq	r0, pc, r0, lsl #6
    2340:	03000218 	movweq	r0, #536	; 0x218

00002344 <_do_flash_enter_cmd_xip>:
    2344:	b510      	push	{r4, lr}
    2346:	f7ff ffeb 	bl	2320 <flash_enter_cmd_xip>
    234a:	2000      	movs	r0, #0
    234c:	bd10      	pop	{r4, pc}
    234e:	be00      	bkpt	0x0000

00002350 <flash_flush_cache>:
    2350:	22a0      	movs	r2, #160	; 0xa0
    2352:	2301      	movs	r3, #1
    2354:	b510      	push	{r4, lr}
    2356:	0552      	lsls	r2, r2, #21
    2358:	6053      	str	r3, [r2, #4]
    235a:	6852      	ldr	r2, [r2, #4]
    235c:	4a02      	ldr	r2, [pc, #8]	; (2368 <flash_flush_cache+0x18>)
    235e:	2000      	movs	r0, #0
    2360:	6013      	str	r3, [r2, #0]
    2362:	f7fe fc21 	bl	ba8 <flash_cs_force>
    2366:	bd10      	pop	{r4, pc}
    2368:	14002000 	strne	r2, [r0], #-0

0000236c <flash_range_erase>:
    236c:	b5f8      	push	{r3, r4, r5, r6, r7, lr}
    236e:	0004      	movs	r4, r0
    2370:	0015      	movs	r5, r2
    2372:	001f      	movs	r7, r3
    2374:	1846      	adds	r6, r0, r1
    2376:	42b4      	cmp	r4, r6
    2378:	d205      	bcs.n	2386 <flash_range_erase+0x1a>
    237a:	22c0      	movs	r2, #192	; 0xc0
    237c:	4b0c      	ldr	r3, [pc, #48]	; (23b0 <flash_range_erase+0x44>)
    237e:	0292      	lsls	r2, r2, #10
    2380:	681b      	ldr	r3, [r3, #0]
    2382:	4213      	tst	r3, r2
    2384:	d000      	beq.n	2388 <flash_range_erase+0x1c>
    2386:	bdf8      	pop	{r3, r4, r5, r6, r7, pc}
    2388:	1e6b      	subs	r3, r5, #1
    238a:	421c      	tst	r4, r3
    238c:	d108      	bne.n	23a0 <flash_range_erase+0x34>
    238e:	1b33      	subs	r3, r6, r4
    2390:	42ab      	cmp	r3, r5
    2392:	d305      	bcc.n	23a0 <flash_range_erase+0x34>
    2394:	0020      	movs	r0, r4
    2396:	0039      	movs	r1, r7
    2398:	f7ff fa62 	bl	1860 <flash_user_erase>
    239c:	1964      	adds	r4, r4, r5
    239e:	e7ea      	b.n	2376 <flash_range_erase+0xa>
    23a0:	0020      	movs	r0, r4
    23a2:	2120      	movs	r1, #32
    23a4:	f7ff fa5c 	bl	1860 <flash_user_erase>
    23a8:	2380      	movs	r3, #128	; 0x80
    23aa:	015b      	lsls	r3, r3, #5
    23ac:	18e4      	adds	r4, r4, r3
    23ae:	e7e2      	b.n	2376 <flash_range_erase+0xa>
    23b0:	4001801c 	andmi	r8, r1, ip, lsl r0

000023b4 <flash_range_program>:
    23b4:	b5f8      	push	{r3, r4, r5, r6, r7, lr}
    23b6:	0005      	movs	r5, r0
    23b8:	000f      	movs	r7, r1
    23ba:	0004      	movs	r4, r0
    23bc:	1886      	adds	r6, r0, r2
    23be:	1b79      	subs	r1, r7, r5
    23c0:	1909      	adds	r1, r1, r4
    23c2:	42b4      	cmp	r4, r6
    23c4:	d205      	bcs.n	23d2 <flash_range_program+0x1e>
    23c6:	22c0      	movs	r2, #192	; 0xc0
    23c8:	4b05      	ldr	r3, [pc, #20]	; (23e0 <flash_range_program+0x2c>)
    23ca:	0292      	lsls	r2, r2, #10
    23cc:	681b      	ldr	r3, [r3, #0]
    23ce:	4213      	tst	r3, r2
    23d0:	d000      	beq.n	23d4 <flash_range_program+0x20>
    23d2:	bdf8      	pop	{r3, r4, r5, r6, r7, pc}
    23d4:	0020      	movs	r0, r4
    23d6:	3401      	adds	r4, #1
    23d8:	f7ff fa5d 	bl	1896 <flash_page_program>
    23dc:	34ff      	adds	r4, #255	; 0xff
    23de:	e7ee      	b.n	23be <flash_range_program+0xa>
    23e0:	4001801c 	andmi	r8, r1, ip, lsl r0

000023e4 <flash_exit_xip>:
    23e4:	2301      	movs	r3, #1
    23e6:	b5f0      	push	{r4, r5, r6, r7, lr}
    23e8:	b085      	sub	sp, #20
    23ea:	425b      	negs	r3, r3
    23ec:	af03      	add	r7, sp, #12
    23ee:	803b      	strh	r3, [r7, #0]
    23f0:	23c0      	movs	r3, #192	; 0xc0
    23f2:	2200      	movs	r2, #0
    23f4:	055b      	lsls	r3, r3, #21
    23f6:	609a      	str	r2, [r3, #8]
    23f8:	6a9a      	ldr	r2, [r3, #40]	; 0x28
    23fa:	6c9a      	ldr	r2, [r3, #72]	; 0x48
    23fc:	2206      	movs	r2, #6
    23fe:	615a      	str	r2, [r3, #20]
    2400:	22e0      	movs	r2, #224	; 0xe0
    2402:	02d2      	lsls	r2, r2, #11
    2404:	601a      	str	r2, [r3, #0]
    2406:	2201      	movs	r2, #1
    2408:	4c1f      	ldr	r4, [pc, #124]	; (2488 <flash_exit_xip+0xa4>)
    240a:	611a      	str	r2, [r3, #16]
    240c:	609a      	str	r2, [r3, #8]
    240e:	6826      	ldr	r6, [r4, #0]
    2410:	238c      	movs	r3, #140	; 0x8c
    2412:	0032      	movs	r2, r6
    2414:	2584      	movs	r5, #132	; 0x84
    2416:	439a      	bics	r2, r3
    2418:	2003      	movs	r0, #3
    241a:	4315      	orrs	r5, r2
    241c:	f7fe fbc4 	bl	ba8 <flash_cs_force>
    2420:	2302      	movs	r3, #2
    2422:	9301      	str	r3, [sp, #4]
    2424:	2380      	movs	r3, #128	; 0x80
    2426:	6025      	str	r5, [r4, #0]
    2428:	011b      	lsls	r3, r3, #4
    242a:	6065      	str	r5, [r4, #4]
    242c:	60a5      	str	r5, [r4, #8]
    242e:	60e5      	str	r5, [r4, #12]
    2430:	3b01      	subs	r3, #1
    2432:	d1fd      	bne.n	2430 <flash_exit_xip+0x4c>
    2434:	2300      	movs	r3, #0
    2436:	2204      	movs	r2, #4
    2438:	0019      	movs	r1, r3
    243a:	0018      	movs	r0, r3
    243c:	f7ff f998 	bl	1770 <flash_put_get>
    2440:	230c      	movs	r3, #12
    2442:	2108      	movs	r1, #8
    2444:	439d      	bics	r5, r3
    2446:	2002      	movs	r0, #2
    2448:	430d      	orrs	r5, r1
    244a:	f7fe fbad 	bl	ba8 <flash_cs_force>
    244e:	9901      	ldr	r1, [sp, #4]
    2450:	2901      	cmp	r1, #1
    2452:	d116      	bne.n	2482 <flash_exit_xip+0x9e>
    2454:	220c      	movs	r2, #12
    2456:	6026      	str	r6, [r4, #0]
    2458:	6066      	str	r6, [r4, #4]
    245a:	4396      	bics	r6, r2
    245c:	0033      	movs	r3, r6
    245e:	2608      	movs	r6, #8
    2460:	431e      	orrs	r6, r3
    2462:	60a6      	str	r6, [r4, #8]
    2464:	2002      	movs	r0, #2
    2466:	60e6      	str	r6, [r4, #12]
    2468:	f7fe fb9e 	bl	ba8 <flash_cs_force>
    246c:	2300      	movs	r3, #0
    246e:	2202      	movs	r2, #2
    2470:	0019      	movs	r1, r3
    2472:	0038      	movs	r0, r7
    2474:	f7ff f97c 	bl	1770 <flash_put_get>
    2478:	2200      	movs	r2, #0
    247a:	4b04      	ldr	r3, [pc, #16]	; (248c <flash_exit_xip+0xa8>)
    247c:	601a      	str	r2, [r3, #0]
    247e:	b005      	add	sp, #20
    2480:	bdf0      	pop	{r4, r5, r6, r7, pc}
    2482:	2301      	movs	r3, #1
    2484:	e7cd      	b.n	2422 <flash_exit_xip+0x3e>
    2486:	46c0      	nop			; (mov r8, r8)
    2488:	40020008 	andmi	r0, r2, r8
    248c:	4001800c 	andmi	r8, r1, ip

00002490 <connect_internal_flash>:
    2490:	2090      	movs	r0, #144	; 0x90
    2492:	b510      	push	{r4, lr}
    2494:	0080      	lsls	r0, r0, #2
    2496:	f7fd fe7e 	bl	196 <reset_unreset_block_wait_noinline>
    249a:	2200      	movs	r2, #0
    249c:	4b03      	ldr	r3, [pc, #12]	; (24ac <connect_internal_flash+0x1c>)
    249e:	605a      	str	r2, [r3, #4]
    24a0:	60da      	str	r2, [r3, #12]
    24a2:	615a      	str	r2, [r3, #20]
    24a4:	61da      	str	r2, [r3, #28]
    24a6:	625a      	str	r2, [r3, #36]	; 0x24
    24a8:	62da      	str	r2, [r3, #44]	; 0x2c
    24aa:	bd10      	pop	{r4, pc}
    24ac:	40018000 	andmi	r8, r1, r0

000024b0 <_do_flash_exit_xip>:
    24b0:	b510      	push	{r4, lr}
    24b2:	f7ff ffed 	bl	2490 <connect_internal_flash>
    24b6:	f7ff ff95 	bl	23e4 <flash_exit_xip>
    24ba:	4b04      	ldr	r3, [pc, #16]	; (24cc <_do_flash_exit_xip+0x1c>)
    24bc:	681b      	ldr	r3, [r3, #0]
    24be:	2b00      	cmp	r3, #0
    24c0:	d001      	beq.n	24c6 <_do_flash_exit_xip+0x16>
    24c2:	f7fe fd19 	bl	ef8 <gpio_setup.part.0>
    24c6:	2000      	movs	r0, #0
    24c8:	bd10      	pop	{r4, pc}
    24ca:	46c0      	nop			; (mov r8, r8)
    24cc:	50100f64 	andspl	r0, r0, r4, ror #30

000024d0 <main>:
    24d0:	b5f8      	push	{r3, r4, r5, r6, r7, lr}
    24d2:	482a      	ldr	r0, [pc, #168]	; (257c <main+0xac>)
    24d4:	f7fd fe5f 	bl	196 <reset_unreset_block_wait_noinline>
    24d8:	2202      	movs	r2, #2
    24da:	4b29      	ldr	r3, [pc, #164]	; (2580 <main+0xb0>)
    24dc:	681b      	ldr	r3, [r3, #0]
    24de:	4213      	tst	r3, r2
    24e0:	d008      	beq.n	24f4 <main+0x24>
    24e2:	2105      	movs	r1, #5
    24e4:	4b27      	ldr	r3, [pc, #156]	; (2584 <main+0xb4>)
    24e6:	6019      	str	r1, [r3, #0]
    24e8:	23d0      	movs	r3, #208	; 0xd0
    24ea:	061b      	lsls	r3, r3, #24
    24ec:	631a      	str	r2, [r3, #48]	; 0x30
    24ee:	641a      	str	r2, [r3, #64]	; 0x40
    24f0:	2200      	movs	r2, #0
    24f2:	641a      	str	r2, [r3, #64]	; 0x40
    24f4:	23c8      	movs	r3, #200	; 0xc8
    24f6:	005b      	lsls	r3, r3, #1
    24f8:	3b01      	subs	r3, #1
    24fa:	d1fd      	bne.n	24f8 <main+0x28>
    24fc:	20d0      	movs	r0, #208	; 0xd0
    24fe:	2409      	movs	r4, #9
    2500:	2200      	movs	r2, #0
    2502:	2504      	movs	r5, #4
    2504:	2101      	movs	r1, #1
    2506:	0600      	lsls	r0, r0, #24
    2508:	002b      	movs	r3, r5
    250a:	3b01      	subs	r3, #1
    250c:	d1fd      	bne.n	250a <main+0x3a>
    250e:	6883      	ldr	r3, [r0, #8]
    2510:	3c01      	subs	r4, #1
    2512:	085b      	lsrs	r3, r3, #1
    2514:	400b      	ands	r3, r1
    2516:	18d2      	adds	r2, r2, r3
    2518:	2c00      	cmp	r4, #0
    251a:	d1f5      	bne.n	2508 <main+0x38>
    251c:	2a04      	cmp	r2, #4
    251e:	d923      	bls.n	2568 <main+0x98>
    2520:	26c0      	movs	r6, #192	; 0xc0
    2522:	f7ff ffb5 	bl	2490 <connect_internal_flash>
    2526:	f7ff ff5d 	bl	23e4 <flash_exit_xip>
    252a:	0576      	lsls	r6, r6, #21
    252c:	2700      	movs	r7, #0
    252e:	22c0      	movs	r2, #192	; 0xc0
    2530:	60b7      	str	r7, [r6, #8]
    2532:	6833      	ldr	r3, [r6, #0]
    2534:	4d14      	ldr	r5, [pc, #80]	; (2588 <main+0xb8>)
    2536:	4393      	bics	r3, r2
    2538:	b2e2      	uxtb	r2, r4
    253a:	4313      	orrs	r3, r2
    253c:	6033      	str	r3, [r6, #0]
    253e:	2301      	movs	r3, #1
    2540:	0029      	movs	r1, r5
    2542:	60b3      	str	r3, [r6, #8]
    2544:	0038      	movs	r0, r7
    2546:	f7ff f947 	bl	17d8 <flash_read_data.constprop.0>
    254a:	2201      	movs	r2, #1
    254c:	21fc      	movs	r1, #252	; 0xfc
    254e:	0028      	movs	r0, r5
    2550:	4252      	negs	r2, r2
    2552:	f000 f82f 	bl	25b4 <crc32_small>
    2556:	4b0d      	ldr	r3, [pc, #52]	; (258c <main+0xbc>)
    2558:	681b      	ldr	r3, [r3, #0]
    255a:	4298      	cmp	r0, r3
    255c:	d008      	beq.n	2570 <main+0xa0>
    255e:	2380      	movs	r3, #128	; 0x80
    2560:	3440      	adds	r4, #64	; 0x40
    2562:	019b      	lsls	r3, r3, #6
    2564:	429c      	cmp	r4, r3
    2566:	d1e1      	bne.n	252c <main+0x5c>
    2568:	2100      	movs	r1, #0
    256a:	0008      	movs	r0, r1
    256c:	f7ff f9ae 	bl	18cc <_usb_boot>
    2570:	f7ff feee 	bl	2350 <flash_flush_cache>
    2574:	3501      	adds	r5, #1
    2576:	46be      	mov	lr, r7
    2578:	4728      	bx	r5
    257a:	46c0      	nop			; (mov r8, r8)
    257c:	00200240 	eoreq	r0, r0, r0, asr #4
    2580:	4006c000 	andmi	ip, r6, r0
    2584:	4001800c 	andmi	r8, r1, ip
    2588:	20041f00 	andcs	r1, r4, r0, lsl #30
    258c:	20041ffc 	strdcs	r1, [r4], -ip

00002590 <reset_usb_boot>:
    2590:	4b05      	ldr	r3, [pc, #20]	; (25a8 <reset_usb_boot+0x18>)
    2592:	b510      	push	{r4, lr}
    2594:	220a      	movs	r2, #10
    2596:	60d8      	str	r0, [r3, #12]
    2598:	6119      	str	r1, [r3, #16]
    259a:	4804      	ldr	r0, [pc, #16]	; (25ac <reset_usb_boot+0x1c>)
    259c:	4904      	ldr	r1, [pc, #16]	; (25b0 <reset_usb_boot+0x20>)
    259e:	f7fe fa41 	bl	a24 <watchdog_reboot>
    25a2:	bf30      	wfi
    25a4:	e7fd      	b.n	25a2 <reset_usb_boot+0x12>
    25a6:	46c0      	nop			; (mov r8, r8)
    25a8:	40058000 	andmi	r8, r5, r0
    25ac:	00001b89 	andeq	r1, r0, r9, lsl #23
    25b0:	20042000 	andcs	r2, r4, r0

000025b4 <crc32_small>:
    25b4:	b530      	push	{r4, r5, lr}
    25b6:	1809      	adds	r1, r1, r0
    25b8:	4d5d      	ldr	r5, [pc, #372]	; (2730 <_memset_short_end+0x4>)
    25ba:	e00c      	b.n	25d6 <byte_loop_test>

000025bc <byte_loop>:
    25bc:	7804      	ldrb	r4, [r0, #0]
    25be:	ba13      	rev	r3, r2
    25c0:	405c      	eors	r4, r3
    25c2:	0624      	lsls	r4, r4, #24
    25c4:	2308      	movs	r3, #8

000025c6 <bit_loop>:
    25c6:	0064      	lsls	r4, r4, #1
    25c8:	d300      	bcc.n	25cc <no_bit>
    25ca:	406c      	eors	r4, r5

000025cc <no_bit>:
    25cc:	3b01      	subs	r3, #1
    25ce:	d1fa      	bne.n	25c6 <bit_loop>
    25d0:	0212      	lsls	r2, r2, #8
    25d2:	4062      	eors	r2, r4
    25d4:	3001      	adds	r0, #1

000025d6 <byte_loop_test>:
    25d6:	4288      	cmp	r0, r1
    25d8:	dbf0      	blt.n	25bc <byte_loop>
    25da:	1c10      	adds	r0, r2, #0
    25dc:	bd30      	pop	{r4, r5, pc}

000025de <poor_mans_text_decompress>:
    25de:	b530      	push	{r4, r5, lr}
    25e0:	4249      	negs	r1, r1
    25e2:	5c43      	ldrb	r3, [r0, r1]
    25e4:	3201      	adds	r2, #1
    25e6:	0a1c      	lsrs	r4, r3, #8
    25e8:	41ad      	sbcs	r5, r5
    25ea:	d105      	bne.n	25f8 <poor_mans_text_decompress+0x1a>
    25ec:	b25d      	sxtb	r5, r3
    25ee:	3101      	adds	r1, #1
    25f0:	5c44      	ldrb	r4, [r0, r1]
    25f2:	41aa      	sbcs	r2, r5
    25f4:	1b14      	subs	r4, r2, r4
    25f6:	5d63      	ldrb	r3, [r4, r5]
    25f8:	5553      	strb	r3, [r2, r5]
    25fa:	3501      	adds	r5, #1
    25fc:	d1fb      	bne.n	25f6 <poor_mans_text_decompress+0x18>
    25fe:	3101      	adds	r1, #1
    2600:	d1ef      	bne.n	25e2 <poor_mans_text_decompress+0x4>
    2602:	bd30      	pop	{r4, r5, pc}

00002604 <__memcpy_44>:
    2604:	4684      	mov	ip, r0
    2606:	2a08      	cmp	r2, #8
    2608:	d33a      	bcc.n	2680 <_memcpy_short>
    260a:	b470      	push	{r4, r5, r6}
    260c:	e01c      	b.n	2648 <_memcpy_aligned>

0000260e <__memcpy_slow_lp>:
    260e:	3a01      	subs	r2, #1
    2610:	5c8b      	ldrb	r3, [r1, r2]
    2612:	5483      	strb	r3, [r0, r2]
    2614:	d1fb      	bne.n	260e <__memcpy_slow_lp>
    2616:	4660      	mov	r0, ip
    2618:	4770      	bx	lr
    261a:	46c0      	nop			; (mov r8, r8)

0000261c <__memcpy>:
    261c:	4684      	mov	ip, r0
    261e:	2a08      	cmp	r2, #8
    2620:	d32e      	bcc.n	2680 <_memcpy_short>
    2622:	1a43      	subs	r3, r0, r1
    2624:	079b      	lsls	r3, r3, #30
    2626:	d1f2      	bne.n	260e <__memcpy_slow_lp>
    2628:	b470      	push	{r4, r5, r6}
    262a:	1a09      	subs	r1, r1, r0
    262c:	1c05      	adds	r5, r0, #0
    262e:	0843      	lsrs	r3, r0, #1
    2630:	d302      	bcc.n	2638 <__memcpy+0x1c>
    2632:	5c44      	ldrb	r4, [r0, r1]
    2634:	7004      	strb	r4, [r0, #0]
    2636:	3001      	adds	r0, #1
    2638:	0883      	lsrs	r3, r0, #2
    263a:	d302      	bcc.n	2642 <__memcpy+0x26>
    263c:	5a44      	ldrh	r4, [r0, r1]
    263e:	8004      	strh	r4, [r0, #0]
    2640:	3002      	adds	r0, #2
    2642:	1809      	adds	r1, r1, r0
    2644:	1a2d      	subs	r5, r5, r0
    2646:	1952      	adds	r2, r2, r5

00002648 <_memcpy_aligned>:
    2648:	3a10      	subs	r2, #16
    264a:	d303      	bcc.n	2654 <_memcpy_aligned+0xc>
    264c:	c978      	ldmia	r1!, {r3, r4, r5, r6}
    264e:	c078      	stmia	r0!, {r3, r4, r5, r6}
    2650:	3a10      	subs	r2, #16
    2652:	d2fb      	bcs.n	264c <_memcpy_aligned+0x4>
    2654:	0752      	lsls	r2, r2, #29
    2656:	d301      	bcc.n	265c <_memcpy_aligned+0x14>
    2658:	c918      	ldmia	r1!, {r3, r4}
    265a:	c018      	stmia	r0!, {r3, r4}
    265c:	0052      	lsls	r2, r2, #1
    265e:	d301      	bcc.n	2664 <_memcpy_aligned+0x1c>
    2660:	c908      	ldmia	r1!, {r3}
    2662:	c008      	stmia	r0!, {r3}
    2664:	d009      	beq.n	267a <_memcpy_aligned+0x32>
    2666:	0052      	lsls	r2, r2, #1
    2668:	d304      	bcc.n	2674 <_memcpy_aligned+0x2c>
    266a:	880b      	ldrh	r3, [r1, #0]
    266c:	8003      	strh	r3, [r0, #0]
    266e:	d004      	beq.n	267a <_memcpy_aligned+0x32>
    2670:	3102      	adds	r1, #2
    2672:	3002      	adds	r0, #2
    2674:	d001      	beq.n	267a <_memcpy_aligned+0x32>
    2676:	780b      	ldrb	r3, [r1, #0]
    2678:	7003      	strb	r3, [r0, #0]
    267a:	bc70      	pop	{r4, r5, r6}
    267c:	4660      	mov	r0, ip
    267e:	4770      	bx	lr

00002680 <_memcpy_short>:
    2680:	a309      	add	r3, pc, #36	; (adr r3, 26a8 <_memcpy_short_end>)
    2682:	0092      	lsls	r2, r2, #2
    2684:	1a9b      	subs	r3, r3, r2
    2686:	3301      	adds	r3, #1
    2688:	4718      	bx	r3
    268a:	46c0      	nop			; (mov r8, r8)
    268c:	798b      	ldrb	r3, [r1, #6]
    268e:	7183      	strb	r3, [r0, #6]
    2690:	794b      	ldrb	r3, [r1, #5]
    2692:	7143      	strb	r3, [r0, #5]
    2694:	790b      	ldrb	r3, [r1, #4]
    2696:	7103      	strb	r3, [r0, #4]
    2698:	78cb      	ldrb	r3, [r1, #3]
    269a:	70c3      	strb	r3, [r0, #3]
    269c:	788b      	ldrb	r3, [r1, #2]
    269e:	7083      	strb	r3, [r0, #2]
    26a0:	784b      	ldrb	r3, [r1, #1]
    26a2:	7043      	strb	r3, [r0, #1]
    26a4:	780b      	ldrb	r3, [r1, #0]
    26a6:	7003      	strb	r3, [r0, #0]

000026a8 <_memcpy_short_end>:
    26a8:	4660      	mov	r0, ip
    26aa:	4770      	bx	lr

000026ac <__memset_4>:
    26ac:	4684      	mov	ip, r0
    26ae:	b2c9      	uxtb	r1, r1
    26b0:	020b      	lsls	r3, r1, #8
    26b2:	4319      	orrs	r1, r3
    26b4:	e011      	b.n	26da <_memset_word_boundary_with_hword_r1>
    26b6:	46c0      	nop			; (mov r8, r8)

000026b8 <__memset>:
    26b8:	4684      	mov	ip, r0
    26ba:	2a08      	cmp	r2, #8
    26bc:	d32a      	bcc.n	2714 <_memset_short>
    26be:	0843      	lsrs	r3, r0, #1
    26c0:	d301      	bcc.n	26c6 <__memset+0xe>
    26c2:	7001      	strb	r1, [r0, #0]
    26c4:	3001      	adds	r0, #1
    26c6:	b2c9      	uxtb	r1, r1
    26c8:	020b      	lsls	r3, r1, #8
    26ca:	4319      	orrs	r1, r3
    26cc:	0883      	lsrs	r3, r0, #2
    26ce:	d301      	bcc.n	26d4 <__memset+0x1c>
    26d0:	8001      	strh	r1, [r0, #0]
    26d2:	3002      	adds	r0, #2
    26d4:	4663      	mov	r3, ip
    26d6:	1a1b      	subs	r3, r3, r0
    26d8:	18d2      	adds	r2, r2, r3

000026da <_memset_word_boundary_with_hword_r1>:
    26da:	ba0b      	rev	r3, r1
    26dc:	4319      	orrs	r1, r3
    26de:	1c0b      	adds	r3, r1, #0
    26e0:	3a10      	subs	r2, #16
    26e2:	d307      	bcc.n	26f4 <_memset_word_boundary_with_hword_r1+0x1a>
    26e4:	b430      	push	{r4, r5}
    26e6:	1c0c      	adds	r4, r1, #0
    26e8:	1c0d      	adds	r5, r1, #0
    26ea:	46c0      	nop			; (mov r8, r8)
    26ec:	c03a      	stmia	r0!, {r1, r3, r4, r5}
    26ee:	3a10      	subs	r2, #16
    26f0:	d2fc      	bcs.n	26ec <_memset_word_boundary_with_hword_r1+0x12>
    26f2:	bc30      	pop	{r4, r5}
    26f4:	0752      	lsls	r2, r2, #29
    26f6:	d300      	bcc.n	26fa <_memset_word_boundary_with_hword_r1+0x20>
    26f8:	c00a      	stmia	r0!, {r1, r3}
    26fa:	0052      	lsls	r2, r2, #1
    26fc:	d300      	bcc.n	2700 <_memset_word_boundary_with_hword_r1+0x26>
    26fe:	c002      	stmia	r0!, {r1}
    2700:	d006      	beq.n	2710 <_memset_word_boundary_with_hword_r1+0x36>
    2702:	0052      	lsls	r2, r2, #1
    2704:	d302      	bcc.n	270c <_memset_word_boundary_with_hword_r1+0x32>
    2706:	8001      	strh	r1, [r0, #0]
    2708:	d002      	beq.n	2710 <_memset_word_boundary_with_hword_r1+0x36>
    270a:	3002      	adds	r0, #2
    270c:	d000      	beq.n	2710 <_memset_word_boundary_with_hword_r1+0x36>
    270e:	7001      	strb	r1, [r0, #0]
    2710:	4660      	mov	r0, ip
    2712:	4770      	bx	lr

00002714 <_memset_short>:
    2714:	a305      	add	r3, pc, #20	; (adr r3, 272c <_memset_short_end>)
    2716:	1a9b      	subs	r3, r3, r2
    2718:	1a9b      	subs	r3, r3, r2
    271a:	3301      	adds	r3, #1
    271c:	4718      	bx	r3
    271e:	7181      	strb	r1, [r0, #6]
    2720:	7141      	strb	r1, [r0, #5]
    2722:	7101      	strb	r1, [r0, #4]
    2724:	70c1      	strb	r1, [r0, #3]
    2726:	7081      	strb	r1, [r0, #2]
    2728:	7041      	strb	r1, [r0, #1]
    272a:	7001      	strb	r1, [r0, #0]

0000272c <_memset_short_end>:
    272c:	4660      	mov	r0, ip
    272e:	4770      	bx	lr
    2730:	04c11db7 	strbeq	r1, [r1], #3511	; 0xdb7

00002734 <mufp_lib_start>:
    2734:	b505      	push	{r0, r2, lr}
    2736:	4608      	mov	r0, r1
    2738:	461a      	mov	r2, r3
    273a:	bd0a      	pop	{r1, r3, pc}

0000273c <unpackx>:
    273c:	0dc2      	lsrs	r2, r0, #23
    273e:	0240      	lsls	r0, r0, #9
    2740:	0a40      	lsrs	r0, r0, #9
    2742:	2401      	movs	r4, #1
    2744:	05e4      	lsls	r4, r4, #23
    2746:	4320      	orrs	r0, r4
    2748:	2aff      	cmp	r2, #255	; 0xff
    274a:	b2d2      	uxtb	r2, r2
    274c:	d900      	bls.n	2750 <unpackx+0x14>
    274e:	4240      	negs	r0, r0
    2750:	3a01      	subs	r2, #1
    2752:	2afe      	cmp	r2, #254	; 0xfe
    2754:	d201      	bcs.n	275a <unpackx+0x1e>
    2756:	3a7e      	subs	r2, #126	; 0x7e
    2758:	4770      	bx	lr
    275a:	2800      	cmp	r0, #0
    275c:	4620      	mov	r0, r4
    275e:	d500      	bpl.n	2762 <unpackx+0x26>
    2760:	4240      	negs	r0, r0
    2762:	3a7e      	subs	r2, #126	; 0x7e
    2764:	0092      	lsls	r2, r2, #2
    2766:	3280      	adds	r2, #128	; 0x80
    2768:	4770      	bx	lr

0000276a <packx>:
    276a:	0fc4      	lsrs	r4, r0, #31
    276c:	07e4      	lsls	r4, r4, #31
    276e:	d504      	bpl.n	277a <packx0+0x2>
    2770:	2d00      	cmp	r5, #0
    2772:	d000      	beq.n	2776 <packx+0xc>
    2774:	3001      	adds	r0, #1
    2776:	4240      	negs	r0, r0

00002778 <packx0>:
    2778:	d403      	bmi.n	2782 <packx0+0xa>
    277a:	3a01      	subs	r2, #1
    277c:	1800      	adds	r0, r0, r0
    277e:	d012      	beq.n	27a6 <packx0+0x2e>
    2780:	d5fb      	bpl.n	277a <packx0+0x2>
    2782:	3281      	adds	r2, #129	; 0x81
    2784:	d101      	bne.n	278a <packx0+0x12>
    2786:	3080      	adds	r0, #128	; 0x80
    2788:	d205      	bcs.n	2796 <packx0+0x1e>
    278a:	3080      	adds	r0, #128	; 0x80
    278c:	d203      	bcs.n	2796 <packx0+0x1e>
    278e:	2d00      	cmp	r5, #0
    2790:	d00f      	beq.n	27b2 <packx0+0x3a>
    2792:	0040      	lsls	r0, r0, #1
    2794:	3a01      	subs	r2, #1
    2796:	2afe      	cmp	r2, #254	; 0xfe
    2798:	da06      	bge.n	27a8 <packx0+0x30>
    279a:	3201      	adds	r2, #1
    279c:	dd07      	ble.n	27ae <packx0+0x36>
    279e:	0a40      	lsrs	r0, r0, #9
    27a0:	05d2      	lsls	r2, r2, #23
    27a2:	4310      	orrs	r0, r2
    27a4:	4320      	orrs	r0, r4
    27a6:	4770      	bx	lr
    27a8:	20ff      	movs	r0, #255	; 0xff
    27aa:	05c0      	lsls	r0, r0, #23
    27ac:	e7fa      	b.n	27a4 <packx0+0x2c>
    27ae:	2000      	movs	r0, #0
    27b0:	4770      	bx	lr
    27b2:	0605      	lsls	r5, r0, #24
    27b4:	d1ed      	bne.n	2792 <packx0+0x1a>
    27b6:	0a40      	lsrs	r0, r0, #9
    27b8:	0280      	lsls	r0, r0, #10
    27ba:	e7eb      	b.n	2794 <packx0+0x1c>

000027bc <mul0>:
    27bc:	b283      	uxth	r3, r0
    27be:	140c      	asrs	r4, r1, #16
    27c0:	4363      	muls	r3, r4
    27c2:	1404      	asrs	r4, r0, #16
    27c4:	b28d      	uxth	r5, r1
    27c6:	436c      	muls	r4, r5
    27c8:	191b      	adds	r3, r3, r4
    27ca:	b284      	uxth	r4, r0
    27cc:	436c      	muls	r4, r5
    27ce:	0425      	lsls	r5, r4, #16
    27d0:	0c24      	lsrs	r4, r4, #16
    27d2:	191b      	adds	r3, r3, r4
    27d4:	1400      	asrs	r0, r0, #16
    27d6:	1409      	asrs	r1, r1, #16
    27d8:	4348      	muls	r0, r1
    27da:	02c0      	lsls	r0, r0, #11
    27dc:	06d9      	lsls	r1, r3, #27
    27de:	430d      	orrs	r5, r1
    27e0:	1159      	asrs	r1, r3, #5
    27e2:	1840      	adds	r0, r0, r1
    27e4:	4770      	bx	lr

000027e6 <mufp_fcmp_combined>:
    27e6:	0042      	lsls	r2, r0, #1
    27e8:	0e12      	lsrs	r2, r2, #24
    27ea:	d001      	beq.n	27f0 <mufp_fcmp_combined+0xa>
    27ec:	2aff      	cmp	r2, #255	; 0xff
    27ee:	d101      	bne.n	27f4 <mufp_fcmp_combined+0xe>
    27f0:	0dc0      	lsrs	r0, r0, #23
    27f2:	05c0      	lsls	r0, r0, #23
    27f4:	004a      	lsls	r2, r1, #1
    27f6:	0e12      	lsrs	r2, r2, #24
    27f8:	d001      	beq.n	27fe <mufp_fcmp_combined+0x18>
    27fa:	2aff      	cmp	r2, #255	; 0xff
    27fc:	d101      	bne.n	2802 <mufp_fcmp_fast>
    27fe:	0dc9      	lsrs	r1, r1, #23
    2800:	05c9      	lsls	r1, r1, #23

00002802 <mufp_fcmp_fast>:
    2802:	2201      	movs	r2, #1
    2804:	4041      	eors	r1, r0
    2806:	d409      	bmi.n	281c <mufp_fcmp_fast+0x1a>
    2808:	4041      	eors	r1, r0
    280a:	d500      	bpl.n	280e <mufp_fcmp_fast+0xc>
    280c:	4252      	negs	r2, r2
    280e:	4288      	cmp	r0, r1
    2810:	dc02      	bgt.n	2818 <mufp_fcmp_fast+0x16>
    2812:	db00      	blt.n	2816 <mufp_fcmp_fast+0x14>
    2814:	2200      	movs	r2, #0
    2816:	4252      	negs	r2, r2
    2818:	1e10      	subs	r0, r2, #0
    281a:	4770      	bx	lr
    281c:	4301      	orrs	r1, r0
    281e:	1849      	adds	r1, r1, r1
    2820:	d0f8      	beq.n	2814 <mufp_fcmp_fast+0x12>
    2822:	2800      	cmp	r0, #0
    2824:	daf8      	bge.n	2818 <mufp_fcmp_fast+0x16>
    2826:	e7f6      	b.n	2816 <mufp_fcmp_fast+0x14>

00002828 <mufp_float2int>:
    2828:	2100      	movs	r1, #0

0000282a <mufp_float2fix>:
    282a:	b510      	push	{r4, lr}
    282c:	f7ff ff86 	bl	273c <unpackx>
    2830:	0013      	movs	r3, r2
    2832:	3382      	adds	r3, #130	; 0x82
    2834:	d410      	bmi.n	2858 <mufp_float2fix+0x2e>
    2836:	440a      	add	r2, r1
    2838:	3a17      	subs	r2, #23
    283a:	db07      	blt.n	284c <mufp_float2fix+0x22>
    283c:	2a07      	cmp	r2, #7
    283e:	dd19      	ble.n	2874 <mufp_float2ufix+0x16>
    2840:	17c1      	asrs	r1, r0, #31
    2842:	43c9      	mvns	r1, r1
    2844:	2001      	movs	r0, #1
    2846:	07c0      	lsls	r0, r0, #31
    2848:	4048      	eors	r0, r1
    284a:	bd10      	pop	{r4, pc}
    284c:	4252      	negs	r2, r2
    284e:	2a20      	cmp	r2, #32
    2850:	db00      	blt.n	2854 <mufp_float2fix+0x2a>
    2852:	2220      	movs	r2, #32
    2854:	4110      	asrs	r0, r2
    2856:	bd10      	pop	{r4, pc}
    2858:	2000      	movs	r0, #0
    285a:	bd10      	pop	{r4, pc}

0000285c <mufp_float2uint>:
    285c:	2100      	movs	r1, #0

0000285e <mufp_float2ufix>:
    285e:	b510      	push	{r4, lr}
    2860:	f7ff ff6c 	bl	273c <unpackx>
    2864:	440a      	add	r2, r1
    2866:	0001      	movs	r1, r0
    2868:	d4ee      	bmi.n	2848 <mufp_float2fix+0x1e>
    286a:	3a17      	subs	r2, #23
    286c:	dbee      	blt.n	284c <mufp_float2fix+0x22>
    286e:	43c1      	mvns	r1, r0
    2870:	2a08      	cmp	r2, #8
    2872:	dce9      	bgt.n	2848 <mufp_float2fix+0x1e>
    2874:	4090      	lsls	r0, r2
    2876:	bd10      	pop	{r4, pc}

00002878 <mufp_uint642float>:
    2878:	2200      	movs	r2, #0

0000287a <mufp_ufix642float>:
    287a:	b530      	push	{r4, r5, lr}
    287c:	2900      	cmp	r1, #0
    287e:	d506      	bpl.n	288e <mufp_fix642float+0x2>
    2880:	07cd      	lsls	r5, r1, #31
    2882:	4305      	orrs	r5, r0
    2884:	0848      	lsrs	r0, r1, #1
    2886:	3a01      	subs	r2, #1
    2888:	e010      	b.n	28ac <mufp_fix642float+0x20>

0000288a <mufp_int642float>:
    288a:	2200      	movs	r2, #0

0000288c <mufp_fix642float>:
    288c:	b530      	push	{r4, r5, lr}
    288e:	0005      	movs	r5, r0
    2890:	430d      	orrs	r5, r1
    2892:	d015      	beq.n	28c0 <ret_pop45>
    2894:	17cd      	asrs	r5, r1, #31
    2896:	160c      	asrs	r4, r1, #24
    2898:	42ac      	cmp	r4, r5
    289a:	d105      	bne.n	28a8 <mufp_fix642float+0x1c>
    289c:	01c9      	lsls	r1, r1, #7
    289e:	0e44      	lsrs	r4, r0, #25
    28a0:	4321      	orrs	r1, r4
    28a2:	01c0      	lsls	r0, r0, #7
    28a4:	3207      	adds	r2, #7
    28a6:	e7f6      	b.n	2896 <mufp_fix642float+0xa>
    28a8:	0005      	movs	r5, r0
    28aa:	0008      	movs	r0, r1
    28ac:	4252      	negs	r2, r2
    28ae:	323d      	adds	r2, #61	; 0x3d
    28b0:	e004      	b.n	28bc <packret>

000028b2 <mufp_int2float>:
    28b2:	2100      	movs	r1, #0

000028b4 <mufp_fix2float>:
    28b4:	b530      	push	{r4, r5, lr}
    28b6:	221d      	movs	r2, #29
    28b8:	1a52      	subs	r2, r2, r1

000028ba <packretns>:
    28ba:	2500      	movs	r5, #0

000028bc <packret>:
    28bc:	f7ff ff55 	bl	276a <packx>

000028c0 <ret_pop45>:
    28c0:	bd30      	pop	{r4, r5, pc}

000028c2 <mufp_uint2float>:
    28c2:	2100      	movs	r1, #0

000028c4 <mufp_ufix2float>:
    28c4:	b530      	push	{r4, r5, lr}
    28c6:	2800      	cmp	r0, #0
    28c8:	daf5      	bge.n	28b6 <mufp_fix2float+0x2>
    28ca:	221e      	movs	r2, #30
    28cc:	1a52      	subs	r2, r2, r1
    28ce:	07c5      	lsls	r5, r0, #31
    28d0:	0840      	lsrs	r0, r0, #1
    28d2:	e7f3      	b.n	28bc <packret>

000028d4 <cordic_start>:
    28d4:	2500      	movs	r5, #0
    28d6:	46a4      	mov	ip, r4
    28d8:	e00d      	b.n	28f6 <cordic_rstep+0x16>

000028da <cordic_vstep>:
    28da:	2900      	cmp	r1, #0
    28dc:	dc02      	bgt.n	28e4 <cordic_rstep+0x4>
    28de:	e005      	b.n	28ec <cordic_rstep+0xc>

000028e0 <cordic_rstep>:
    28e0:	2a00      	cmp	r2, #0
    28e2:	da03      	bge.n	28ec <cordic_rstep+0xc>
    28e4:	1b89      	subs	r1, r1, r6
    28e6:	427f      	negs	r7, r7
    28e8:	1912      	adds	r2, r2, r4
    28ea:	e001      	b.n	28f0 <cordic_rstep+0x10>
    28ec:	1989      	adds	r1, r1, r6
    28ee:	1b12      	subs	r2, r2, r4
    28f0:	4664      	mov	r4, ip
    28f2:	4367      	muls	r7, r4
    28f4:	1bc0      	subs	r0, r0, r7
    28f6:	cb10      	ldmia	r3!, {r4}
    28f8:	0864      	lsrs	r4, r4, #1
    28fa:	d200      	bcs.n	28fe <cordic_rstep+0x1e>
    28fc:	3501      	adds	r5, #1
    28fe:	4606      	mov	r6, r0
    2900:	412e      	asrs	r6, r5
    2902:	460f      	mov	r7, r1
    2904:	412f      	asrs	r7, r5
    2906:	0864      	lsrs	r4, r4, #1
    2908:	4770      	bx	lr

0000290a <cordic_rot>:
    290a:	b5c0      	push	{r6, r7, lr}
    290c:	f7ff ffe2 	bl	28d4 <cordic_start>
    2910:	f7ff ffe6 	bl	28e0 <cordic_rstep>
    2914:	d3fc      	bcc.n	2910 <cordic_rot+0x6>
    2916:	1386      	asrs	r6, r0, #14
    2918:	138f      	asrs	r7, r1, #14
    291a:	10d2      	asrs	r2, r2, #3
    291c:	4356      	muls	r6, r2
    291e:	4357      	muls	r7, r2
    2920:	4664      	mov	r4, ip
    2922:	4367      	muls	r7, r4
    2924:	1336      	asrs	r6, r6, #12
    2926:	133f      	asrs	r7, r7, #12
    2928:	1bc0      	subs	r0, r0, r7
    292a:	1989      	adds	r1, r1, r6

0000292c <cordic_exit>:
    292c:	bdc0      	pop	{r6, r7, pc}

0000292e <cordic_vec>:
    292e:	b5c0      	push	{r6, r7, lr}
    2930:	f7ff ffd0 	bl	28d4 <cordic_start>
    2934:	f7ff ffd1 	bl	28da <cordic_vstep>
    2938:	d3fc      	bcc.n	2934 <cordic_vec+0x6>
    293a:	2900      	cmp	r1, #0
    293c:	dc02      	bgt.n	2944 <cordic_vec+0x16>
    293e:	1989      	adds	r1, r1, r6
    2940:	1b12      	subs	r2, r2, r4
    2942:	e001      	b.n	2948 <cordic_vec+0x1a>
    2944:	1b89      	subs	r1, r1, r6
    2946:	1912      	adds	r2, r2, r4
    2948:	1076      	asrs	r6, r6, #1
    294a:	1064      	asrs	r4, r4, #1
    294c:	d1f5      	bne.n	293a <cordic_vec+0xc>
    294e:	e7ed      	b.n	292c <cordic_exit>

00002950 <mufp_fsin>:
    2950:	b530      	push	{r4, r5, lr}
    2952:	2118      	movs	r1, #24
    2954:	f7ff ff69 	bl	282a <mufp_float2fix>
    2958:	4c5d      	ldr	r4, [pc, #372]	; (2ad0 <pi_q29>)
    295a:	0924      	lsrs	r4, r4, #4
    295c:	1b00      	subs	r0, r0, r4
    295e:	dafd      	bge.n	295c <mufp_fsin+0xc>
    2960:	1900      	adds	r0, r0, r4
    2962:	d4fd      	bmi.n	2960 <mufp_fsin+0x10>
    2964:	0082      	lsls	r2, r0, #2
    2966:	0065      	lsls	r5, r4, #1
    2968:	4853      	ldr	r0, [pc, #332]	; (2ab8 <mufp_fatan2+0x6a>)
    296a:	2100      	movs	r1, #0
    296c:	42a2      	cmp	r2, r4
    296e:	db02      	blt.n	2976 <mufp_fsin+0x26>
    2970:	1b52      	subs	r2, r2, r5
    2972:	4240      	negs	r0, r0
    2974:	e7fa      	b.n	296c <mufp_fsin+0x1c>
    2976:	00d2      	lsls	r2, r2, #3
    2978:	a355      	add	r3, pc, #340	; (adr r3, 2ad0 <pi_q29>)
    297a:	2401      	movs	r4, #1
    297c:	f7ff ffc5 	bl	290a <cordic_rot>
    2980:	3109      	adds	r1, #9
    2982:	2200      	movs	r2, #0
    2984:	2300      	movs	r3, #0
    2986:	2500      	movs	r5, #0
    2988:	f000 f80c 	bl	29a4 <clampx>
    298c:	f7ff feed 	bl	276a <packx>
    2990:	f7ff fed0 	bl	2734 <mufp_lib_start>
    2994:	f000 f806 	bl	29a4 <clampx>
    2998:	e78f      	b.n	28ba <packretns>

0000299a <mufp_fcos>:
    299a:	b500      	push	{lr}
    299c:	f7ff ffd8 	bl	2950 <mufp_fsin>
    29a0:	4608      	mov	r0, r1
    29a2:	bd00      	pop	{pc}

000029a4 <clampx>:
    29a4:	2401      	movs	r4, #1
    29a6:	0764      	lsls	r4, r4, #29
    29a8:	42a0      	cmp	r0, r4
    29aa:	dc03      	bgt.n	29b4 <clampx+0x10>
    29ac:	4264      	negs	r4, r4
    29ae:	42a0      	cmp	r0, r4
    29b0:	dd00      	ble.n	29b4 <clampx+0x10>
    29b2:	4770      	bx	lr
    29b4:	0020      	movs	r0, r4
    29b6:	4770      	bx	lr

000029b8 <mufp_ftan>:
    29b8:	b570      	push	{r4, r5, r6, lr}
    29ba:	f7ff ffc9 	bl	2950 <mufp_fsin>
    29be:	e18c      	b.n	2cda <fdiv_n>

000029c0 <mufp_fexp>:
    29c0:	b530      	push	{r4, r5, lr}
    29c2:	2118      	movs	r1, #24
    29c4:	f7ff ff31 	bl	282a <mufp_float2fix>
    29c8:	1401      	asrs	r1, r0, #16
    29ca:	4a3c      	ldr	r2, [pc, #240]	; (2abc <mufp_fatan2+0x6e>)
    29cc:	4351      	muls	r1, r2
    29ce:	14c9      	asrs	r1, r1, #19
    29d0:	3101      	adds	r1, #1
    29d2:	1049      	asrs	r1, r1, #1
    29d4:	b402      	push	{r1}
    29d6:	0142      	lsls	r2, r0, #5
    29d8:	4839      	ldr	r0, [pc, #228]	; (2ac0 <mufp_fatan2+0x72>)
    29da:	4341      	muls	r1, r0
    29dc:	1a52      	subs	r2, r2, r1
    29de:	4839      	ldr	r0, [pc, #228]	; (2ac4 <mufp_fatan2+0x76>)
    29e0:	2100      	movs	r1, #0
    29e2:	a348      	add	r3, pc, #288	; (adr r3, 2b04 <tab_ch>)
    29e4:	43cc      	mvns	r4, r1
    29e6:	f7ff ff90 	bl	290a <cordic_rot>
    29ea:	4408      	add	r0, r1
    29ec:	bc04      	pop	{r2}
    29ee:	e764      	b.n	28ba <packretns>

000029f0 <mufp_fsqrt_ln>:
    29f0:	b530      	push	{r4, r5, lr}
    29f2:	f7ff fea3 	bl	273c <unpackx>
    29f6:	0001      	movs	r1, r0
    29f8:	d415      	bmi.n	2a26 <mufp_fsqrt_ln+0x36>
    29fa:	4933      	ldr	r1, [pc, #204]	; (2ac8 <mufp_fatan2+0x7a>)
    29fc:	f7ff fede 	bl	27bc <mul0>
    2a00:	1051      	asrs	r1, r2, #1
    2a02:	d301      	bcc.n	2a08 <mufp_fsqrt_ln+0x18>
    2a04:	3101      	adds	r1, #1
    2a06:	1040      	asrs	r0, r0, #1
    2a08:	b402      	push	{r1}
    2a0a:	4601      	mov	r1, r0
    2a0c:	4b2e      	ldr	r3, [pc, #184]	; (2ac8 <mufp_fatan2+0x7a>)
    2a0e:	009b      	lsls	r3, r3, #2
    2a10:	18c0      	adds	r0, r0, r3
    2a12:	1ac9      	subs	r1, r1, r3
    2a14:	2200      	movs	r2, #0
    2a16:	a33b      	add	r3, pc, #236	; (adr r3, 2b04 <tab_ch>)
    2a18:	43d4      	mvns	r4, r2
    2a1a:	f7ff ff88 	bl	292e <cordic_vec>
    2a1e:	4611      	mov	r1, r2
    2a20:	bc04      	pop	{r2}
    2a22:	0013      	movs	r3, r2
    2a24:	e749      	b.n	28ba <packretns>
    2a26:	22ff      	movs	r2, #255	; 0xff
    2a28:	e7fb      	b.n	2a22 <mufp_fsqrt_ln+0x32>

00002a2a <mufp_fln>:
    2a2a:	b530      	push	{r4, r5, lr}
    2a2c:	f7ff ffe0 	bl	29f0 <mufp_fsqrt_ln>
    2a30:	2b46      	cmp	r3, #70	; 0x46
    2a32:	dc0a      	bgt.n	2a4a <mufp_fln+0x20>
    2a34:	425b      	negs	r3, r3
    2a36:	2b46      	cmp	r3, #70	; 0x46
    2a38:	dc06      	bgt.n	2a48 <mufp_fln+0x1e>
    2a3a:	4824      	ldr	r0, [pc, #144]	; (2acc <mufp_fatan2+0x7e>)
    2a3c:	4358      	muls	r0, r3
    2a3e:	3108      	adds	r1, #8
    2a40:	1109      	asrs	r1, r1, #4
    2a42:	1a08      	subs	r0, r1, r0
    2a44:	2205      	movs	r2, #5
    2a46:	e738      	b.n	28ba <packretns>
    2a48:	43c0      	mvns	r0, r0
    2a4a:	22ff      	movs	r2, #255	; 0xff
    2a4c:	e735      	b.n	28ba <packretns>

00002a4e <mufp_fatan2>:
    2a4e:	b530      	push	{r4, r5, lr}
    2a50:	f7ff fe74 	bl	273c <unpackx>
    2a54:	f7ff fe6e 	bl	2734 <mufp_lib_start>
    2a58:	f7ff fe70 	bl	273c <unpackx>
    2a5c:	0140      	lsls	r0, r0, #5
    2a5e:	0149      	lsls	r1, r1, #5
    2a60:	18d4      	adds	r4, r2, r3
    2a62:	1264      	asrs	r4, r4, #9
    2a64:	3401      	adds	r4, #1
    2a66:	d40a      	bmi.n	2a7e <mufp_fatan2+0x30>
    2a68:	1ad4      	subs	r4, r2, r3
    2a6a:	da05      	bge.n	2a78 <mufp_fatan2+0x2a>
    2a6c:	4264      	negs	r4, r4
    2a6e:	4120      	asrs	r0, r4
    2a70:	2c1c      	cmp	r4, #28
    2a72:	d30c      	bcc.n	2a8e <mufp_fatan2+0x40>
    2a74:	17c0      	asrs	r0, r0, #31
    2a76:	e00a      	b.n	2a8e <mufp_fatan2+0x40>
    2a78:	4121      	asrs	r1, r4
    2a7a:	2c1c      	cmp	r4, #28
    2a7c:	d307      	bcc.n	2a8e <mufp_fatan2+0x40>
    2a7e:	2800      	cmp	r0, #0
    2a80:	da03      	bge.n	2a8a <mufp_fatan2+0x3c>
    2a82:	4813      	ldr	r0, [pc, #76]	; (2ad0 <pi_q29>)
    2a84:	17c9      	asrs	r1, r1, #31
    2a86:	4048      	eors	r0, r1
    2a88:	e013      	b.n	2ab2 <mufp_fatan2+0x64>
    2a8a:	17c8      	asrs	r0, r1, #31
    2a8c:	e011      	b.n	2ab2 <mufp_fatan2+0x64>
    2a8e:	2200      	movs	r2, #0
    2a90:	2800      	cmp	r0, #0
    2a92:	da02      	bge.n	2a9a <mufp_fatan2+0x4c>
    2a94:	4240      	negs	r0, r0
    2a96:	4249      	negs	r1, r1
    2a98:	4a0d      	ldr	r2, [pc, #52]	; (2ad0 <pi_q29>)
    2a9a:	a30d      	add	r3, pc, #52	; (adr r3, 2ad0 <pi_q29>)
    2a9c:	2401      	movs	r4, #1
    2a9e:	f7ff ff46 	bl	292e <cordic_vec>
    2aa2:	4610      	mov	r0, r2
    2aa4:	4a0a      	ldr	r2, [pc, #40]	; (2ad0 <pi_q29>)
    2aa6:	1884      	adds	r4, r0, r2
    2aa8:	d202      	bcs.n	2ab0 <mufp_fatan2+0x62>
    2aaa:	1a84      	subs	r4, r0, r2
    2aac:	d400      	bmi.n	2ab0 <mufp_fatan2+0x62>
    2aae:	1aa0      	subs	r0, r4, r2
    2ab0:	3801      	subs	r0, #1
    2ab2:	2200      	movs	r2, #0
    2ab4:	e701      	b.n	28ba <packretns>
    2ab6:	46c0      	nop			; (mov r8, r8)
    2ab8:	136e9db4 	cmnne	lr, #180, 26	; 0x2d00
    2abc:	00001715 	andeq	r1, r0, r5, lsl r7
    2ac0:	162e42ff 			; <UNDEFINED> instruction: 0x162e42ff
    2ac4:	2c9e15ca 	cfldr32cs	mvfx1, [lr], {202}	; 0xca
    2ac8:	0593c2b9 	ldreq	ip, [r3, #697]	; 0x2b9
    2acc:	0162e430 	cmneq	r2, r0, lsr r4

00002ad0 <pi_q29>:
    2ad0:	6487ed51 	strvs	lr, [r7], #3409	; 0xd51
    2ad4:	3b58ce0c 	blcc	163630c <platform.c.c204d31d+0x1629e7a>
    2ad8:	1f5b75f8 	svcne	0x005b75f8
    2adc:	0feadd4c 	svceq	0x00eadd4c
    2ae0:	07fd56ec 	ldrbeq	r5, [sp, ip, ror #13]!
    2ae4:	03ffaab8 	mvnseq	sl, #184, 20	; 0xb8000
    2ae8:	01fff554 	mvnseq	pc, r4, asr r5	; <UNPREDICTABLE>
    2aec:	00fffeac 	rscseq	pc, pc, ip, lsr #29
    2af0:	007fffd4 	ldrsbteq	pc, [pc], #-244	; <UNPREDICTABLE>
    2af4:	003ffffc 	ldrshteq	pc, [pc], -ip	; <UNPREDICTABLE>
    2af8:	001ffffc 			; <UNDEFINED> instruction: 0x001ffffc
    2afc:	00100000 	andseq	r0, r0, r0
    2b00:	00080002 	andeq	r0, r8, r2

00002b04 <tab_ch>:
    2b04:	464fa9ec 	strbmi	sl, [pc], -ip, ror #19
    2b08:	464fa9ed 	strbmi	sl, [pc], -sp, ror #19
    2b0c:	20b15df4 	ldrshtcs	r5, [r1], r4
    2b10:	1015891c 	andsne	r8, r5, ip, lsl r9
    2b14:	0802ac44 	stmdaeq	r2, {r2, r6, sl, fp, sp, pc}
    2b18:	0802ac45 	stmdaeq	r2, {r0, r2, r6, sl, fp, sp, pc}
    2b1c:	04005564 	streq	r5, [r0], #-1380	; 0xfffffa9c
    2b20:	02000aac 	andeq	r0, r0, #172, 20	; 0xac000
    2b24:	01000154 	tsteq	r0, r4, asr r1
    2b28:	0080002c 	addeq	r0, r0, ip, lsr #32
    2b2c:	00400004 	subeq	r0, r0, r4
    2b30:	00200004 	eoreq	r0, r0, r4
    2b34:	00100000 	andseq	r0, r0, r0
    2b38:	00080000 	andeq	r0, r8, r0
    2b3c:	00080003 	andeq	r0, r8, r3

00002b40 <mufp_fsub>:
    2b40:	4ab9      	ldr	r2, [pc, #740]	; (2e28 <mufp_lib_end>)
    2b42:	4051      	eors	r1, r2

00002b44 <mufp_fadd>:
    2b44:	b570      	push	{r4, r5, r6, lr}
    2b46:	17c4      	asrs	r4, r0, #31
    2b48:	0042      	lsls	r2, r0, #1
    2b4a:	0e12      	lsrs	r2, r2, #24
    2b4c:	d051      	beq.n	2bf2 <fa_xe0>
    2b4e:	2aff      	cmp	r2, #255	; 0xff
    2b50:	d052      	beq.n	2bf8 <fa_xe255>

00002b52 <fa_xe>:
    2b52:	17cd      	asrs	r5, r1, #31
    2b54:	004b      	lsls	r3, r1, #1
    2b56:	0e1b      	lsrs	r3, r3, #24
    2b58:	d051      	beq.n	2bfe <fa_ye0>
    2b5a:	2bff      	cmp	r3, #255	; 0xff
    2b5c:	d052      	beq.n	2c04 <fa_ye255>

00002b5e <fa_ye>:
    2b5e:	4eb3      	ldr	r6, [pc, #716]	; (2e2c <mufp_lib_end+0x4>)
    2b60:	4030      	ands	r0, r6
    2b62:	4031      	ands	r1, r6
    2b64:	3601      	adds	r6, #1
    2b66:	4330      	orrs	r0, r6
    2b68:	4331      	orrs	r1, r6
    2b6a:	4060      	eors	r0, r4
    2b6c:	4069      	eors	r1, r5
    2b6e:	1b00      	subs	r0, r0, r4
    2b70:	1b49      	subs	r1, r1, r5
    2b72:	1a9d      	subs	r5, r3, r2
    2b74:	1ad4      	subs	r4, r2, r3
    2b76:	d40d      	bmi.n	2b94 <fa_ygtx>
    2b78:	2c1e      	cmp	r4, #30
    2b7a:	da08      	bge.n	2b8e <fa_xmgty>
    2b7c:	3520      	adds	r5, #32
    2b7e:	0013      	movs	r3, r2
    2b80:	000a      	movs	r2, r1
    2b82:	40aa      	lsls	r2, r5
    2b84:	4121      	asrs	r1, r4
    2b86:	e00b      	b.n	2ba0 <fa_0>

00002b88 <fa_ymgtx>:
    2b88:	2200      	movs	r2, #0
    2b8a:	0008      	movs	r0, r1
    2b8c:	e00a      	b.n	2ba4 <fa_1>

00002b8e <fa_xmgty>:
    2b8e:	0013      	movs	r3, r2
    2b90:	2200      	movs	r2, #0
    2b92:	e007      	b.n	2ba4 <fa_1>

00002b94 <fa_ygtx>:
    2b94:	2d1e      	cmp	r5, #30
    2b96:	daf7      	bge.n	2b88 <fa_ymgtx>
    2b98:	3420      	adds	r4, #32
    2b9a:	0002      	movs	r2, r0
    2b9c:	40a2      	lsls	r2, r4
    2b9e:	4128      	asrs	r0, r5

00002ba0 <fa_0>:
    2ba0:	1840      	adds	r0, r0, r1
    2ba2:	d019      	beq.n	2bd8 <fa_9>

00002ba4 <fa_1>:
    2ba4:	0fc1      	lsrs	r1, r0, #31
    2ba6:	d003      	beq.n	2bb0 <fa_8>
    2ba8:	43c0      	mvns	r0, r0
    2baa:	4252      	negs	r2, r2
    2bac:	d100      	bne.n	2bb0 <fa_8>
    2bae:	3001      	adds	r0, #1

00002bb0 <fa_8>:
    2bb0:	19b6      	adds	r6, r6, r6
    2bb2:	42b0      	cmp	r0, r6
    2bb4:	d204      	bcs.n	2bc0 <fa_2>

00002bb6 <fa_3>:
    2bb6:	1892      	adds	r2, r2, r2
    2bb8:	4140      	adcs	r0, r0
    2bba:	3b01      	subs	r3, #1
    2bbc:	42b0      	cmp	r0, r6
    2bbe:	d3fa      	bcc.n	2bb6 <fa_3>

00002bc0 <fa_2>:
    2bc0:	0840      	lsrs	r0, r0, #1
    2bc2:	d302      	bcc.n	2bca <fa_4>
    2bc4:	3001      	adds	r0, #1
    2bc6:	2a00      	cmp	r2, #0
    2bc8:	d009      	beq.n	2bde <fa_5>

00002bca <fa_4>:
    2bca:	2bfe      	cmp	r3, #254	; 0xfe
    2bcc:	d20a      	bcs.n	2be4 <fa_6>
    2bce:	07c9      	lsls	r1, r1, #31
    2bd0:	4408      	add	r0, r1
    2bd2:	05db      	lsls	r3, r3, #23
    2bd4:	4418      	add	r0, r3

00002bd6 <fa_end>:
    2bd6:	bd70      	pop	{r4, r5, r6, pc}

00002bd8 <fa_9>:
    2bd8:	2a00      	cmp	r2, #0
    2bda:	d0fc      	beq.n	2bd6 <fa_end>
    2bdc:	e7e2      	b.n	2ba4 <fa_1>

00002bde <fa_5>:
    2bde:	0840      	lsrs	r0, r0, #1
    2be0:	0040      	lsls	r0, r0, #1
    2be2:	e7f2      	b.n	2bca <fa_4>

00002be4 <fa_6>:
    2be4:	da01      	bge.n	2bea <fa_7>
    2be6:	07c8      	lsls	r0, r1, #31
    2be8:	bd70      	pop	{r4, r5, r6, pc}

00002bea <fa_7>:
    2bea:	0208      	lsls	r0, r1, #8
    2bec:	30ff      	adds	r0, #255	; 0xff
    2bee:	05c0      	lsls	r0, r0, #23
    2bf0:	bd70      	pop	{r4, r5, r6, pc}

00002bf2 <fa_xe0>:
    2bf2:	3a20      	subs	r2, #32
    2bf4:	1912      	adds	r2, r2, r4
    2bf6:	e7ac      	b.n	2b52 <fa_xe>

00002bf8 <fa_xe255>:
    2bf8:	0212      	lsls	r2, r2, #8
    2bfa:	4422      	add	r2, r4
    2bfc:	e7a9      	b.n	2b52 <fa_xe>

00002bfe <fa_ye0>:
    2bfe:	3b20      	subs	r3, #32
    2c00:	195b      	adds	r3, r3, r5
    2c02:	e7ac      	b.n	2b5e <fa_ye>

00002c04 <fa_ye255>:
    2c04:	021b      	lsls	r3, r3, #8
    2c06:	442b      	add	r3, r5
    2c08:	e7a9      	b.n	2b5e <fa_ye>
    2c0a:	46c0      	nop			; (mov r8, r8)

00002c0c <mufp_fmul>:
    2c0c:	b580      	push	{r7, lr}
    2c0e:	4602      	mov	r2, r0
    2c10:	404a      	eors	r2, r1
    2c12:	0fd2      	lsrs	r2, r2, #31
    2c14:	07d2      	lsls	r2, r2, #31
    2c16:	4696      	mov	lr, r2
    2c18:	0040      	lsls	r0, r0, #1
    2c1a:	0049      	lsls	r1, r1, #1
    2c1c:	0e02      	lsrs	r2, r0, #24
    2c1e:	d03d      	beq.n	2c9c <fm_xe0>
    2c20:	2aff      	cmp	r2, #255	; 0xff
    2c22:	d03c      	beq.n	2c9e <fm_xe255>

00002c24 <fm_xe>:
    2c24:	0e0b      	lsrs	r3, r1, #24
    2c26:	d03c      	beq.n	2ca2 <fm_ye0>
    2c28:	2bff      	cmp	r3, #255	; 0xff
    2c2a:	d03b      	beq.n	2ca4 <fm_ye255>

00002c2c <fm_ye>:
    2c2c:	18d7      	adds	r7, r2, r3
    2c2e:	3f80      	subs	r7, #128	; 0x80
    2c30:	0200      	lsls	r0, r0, #8
    2c32:	0209      	lsls	r1, r1, #8
    2c34:	0a40      	lsrs	r0, r0, #9
    2c36:	0a49      	lsrs	r1, r1, #9
    2c38:	1842      	adds	r2, r0, r1
    2c3a:	4694      	mov	ip, r2
    2c3c:	09c2      	lsrs	r2, r0, #7
    2c3e:	09cb      	lsrs	r3, r1, #7
    2c40:	435a      	muls	r2, r3
    2c42:	4348      	muls	r0, r1
    2c44:	0c92      	lsrs	r2, r2, #18
    2c46:	d302      	bcc.n	2c4e <fm_ye+0x22>
    2c48:	2800      	cmp	r0, #0
    2c4a:	d400      	bmi.n	2c4e <fm_ye+0x22>
    2c4c:	3201      	adds	r2, #1
    2c4e:	0243      	lsls	r3, r0, #9
    2c50:	0dc0      	lsrs	r0, r0, #23
    2c52:	0252      	lsls	r2, r2, #9
    2c54:	1880      	adds	r0, r0, r2
    2c56:	4460      	add	r0, ip
    2c58:	0dc1      	lsrs	r1, r0, #23
    2c5a:	d10e      	bne.n	2c7a <fm_0>
    2c5c:	2ffe      	cmp	r7, #254	; 0xfe
    2c5e:	d22b      	bcs.n	2cb8 <fm_3a>
    2c60:	005b      	lsls	r3, r3, #1
    2c62:	d301      	bcc.n	2c68 <fm_1>
    2c64:	d005      	beq.n	2c72 <fm_2>
    2c66:	3001      	adds	r0, #1

00002c68 <fm_1>:
    2c68:	3701      	adds	r7, #1
    2c6a:	05ff      	lsls	r7, r7, #23
    2c6c:	4438      	add	r0, r7
    2c6e:	4470      	add	r0, lr
    2c70:	bd80      	pop	{r7, pc}

00002c72 <fm_2>:
    2c72:	3001      	adds	r0, #1

00002c74 <fm_3>:
    2c74:	0840      	lsrs	r0, r0, #1
    2c76:	0040      	lsls	r0, r0, #1
    2c78:	e7f6      	b.n	2c68 <fm_1>

00002c7a <fm_0>:
    2c7a:	3701      	adds	r7, #1
    2c7c:	2ffe      	cmp	r7, #254	; 0xfe
    2c7e:	d213      	bcs.n	2ca8 <fm_3b>
    2c80:	0840      	lsrs	r0, r0, #1
    2c82:	d302      	bcc.n	2c8a <fm_1a>
    2c84:	3001      	adds	r0, #1
    2c86:	2b00      	cmp	r3, #0
    2c88:	d005      	beq.n	2c96 <fm_3c>

00002c8a <fm_1a>:
    2c8a:	19ff      	adds	r7, r7, r7
    2c8c:	3701      	adds	r7, #1
    2c8e:	05bf      	lsls	r7, r7, #22
    2c90:	4438      	add	r0, r7
    2c92:	4470      	add	r0, lr
    2c94:	bd80      	pop	{r7, pc}

00002c96 <fm_3c>:
    2c96:	0840      	lsrs	r0, r0, #1
    2c98:	0040      	lsls	r0, r0, #1
    2c9a:	e7f6      	b.n	2c8a <fm_1a>

00002c9c <fm_xe0>:
    2c9c:	3a10      	subs	r2, #16

00002c9e <fm_xe255>:
    2c9e:	0212      	lsls	r2, r2, #8
    2ca0:	e7c0      	b.n	2c24 <fm_xe>

00002ca2 <fm_ye0>:
    2ca2:	3b10      	subs	r3, #16

00002ca4 <fm_ye255>:
    2ca4:	021b      	lsls	r3, r3, #8
    2ca6:	e7c1      	b.n	2c2c <fm_ye>

00002ca8 <fm_3b>:
    2ca8:	da12      	bge.n	2cd0 <fm_4>
    2caa:	3701      	adds	r7, #1
    2cac:	d10e      	bne.n	2ccc <fm_5>
    2cae:	3002      	adds	r0, #2
    2cb0:	0dc0      	lsrs	r0, r0, #23
    2cb2:	2803      	cmp	r0, #3
    2cb4:	d10a      	bne.n	2ccc <fm_5>
    2cb6:	e005      	b.n	2cc4 <fm_6>

00002cb8 <fm_3a>:
    2cb8:	da0a      	bge.n	2cd0 <fm_4>
    2cba:	3701      	adds	r7, #1
    2cbc:	d106      	bne.n	2ccc <fm_5>
    2cbe:	3001      	adds	r0, #1
    2cc0:	0dc0      	lsrs	r0, r0, #23
    2cc2:	d003      	beq.n	2ccc <fm_5>

00002cc4 <fm_6>:
    2cc4:	2001      	movs	r0, #1
    2cc6:	05c0      	lsls	r0, r0, #23
    2cc8:	4470      	add	r0, lr
    2cca:	bd80      	pop	{r7, pc}

00002ccc <fm_5>:
    2ccc:	4670      	mov	r0, lr
    2cce:	bd80      	pop	{r7, pc}

00002cd0 <fm_4>:
    2cd0:	20ff      	movs	r0, #255	; 0xff
    2cd2:	05c0      	lsls	r0, r0, #23
    2cd4:	4470      	add	r0, lr
    2cd6:	bd80      	pop	{r7, pc}

00002cd8 <mufp_fdiv>:
    2cd8:	b570      	push	{r4, r5, r6, lr}

00002cda <fdiv_n>:
    2cda:	2401      	movs	r4, #1
    2cdc:	4266      	negs	r6, r4
    2cde:	05e4      	lsls	r4, r4, #23
    2ce0:	024a      	lsls	r2, r1, #9
    2ce2:	0a52      	lsrs	r2, r2, #9
    2ce4:	4322      	orrs	r2, r4
    2ce6:	09d3      	lsrs	r3, r2, #7
    2ce8:	25d0      	movs	r5, #208	; 0xd0
    2cea:	062d      	lsls	r5, r5, #24
    2cec:	662e      	str	r6, [r5, #96]	; 0x60
    2cee:	666b      	str	r3, [r5, #100]	; 0x64
    2cf0:	0dc6      	lsrs	r6, r0, #23
    2cf2:	b2f3      	uxtb	r3, r6
    2cf4:	0240      	lsls	r0, r0, #9
    2cf6:	0a40      	lsrs	r0, r0, #9
    2cf8:	4320      	orrs	r0, r4
    2cfa:	0dc9      	lsrs	r1, r1, #23
    2cfc:	404e      	eors	r6, r1
    2cfe:	0a36      	lsrs	r6, r6, #8
    2d00:	07f6      	lsls	r6, r6, #31
    2d02:	6f2d      	ldr	r5, [r5, #112]	; 0x70
    2d04:	b2c9      	uxtb	r1, r1
    2d06:	2900      	cmp	r1, #0
    2d08:	d030      	beq.n	2d6c <retinf>
    2d0a:	29ff      	cmp	r1, #255	; 0xff
    2d0c:	d02c      	beq.n	2d68 <fdiv_n+0x8e>
    2d0e:	2b00      	cmp	r3, #0
    2d10:	d039      	beq.n	2d86 <retzero>
    2d12:	2bff      	cmp	r3, #255	; 0xff
    2d14:	d02a      	beq.n	2d6c <retinf>
    2d16:	1a5b      	subs	r3, r3, r1
    2d18:	337d      	adds	r3, #125	; 0x7d
    2d1a:	0a01      	lsrs	r1, r0, #8
    2d1c:	4369      	muls	r1, r5
    2d1e:	0c09      	lsrs	r1, r1, #16
    2d20:	03c0      	lsls	r0, r0, #15
    2d22:	0014      	movs	r4, r2
    2d24:	434c      	muls	r4, r1
    2d26:	1b04      	subs	r4, r0, r4
    2d28:	12a4      	asrs	r4, r4, #10
    2d2a:	436c      	muls	r4, r5
    2d2c:	1424      	asrs	r4, r4, #16
    2d2e:	0349      	lsls	r1, r1, #13
    2d30:	1909      	adds	r1, r1, r4
    2d32:	0f0c      	lsrs	r4, r1, #28
    2d34:	d108      	bne.n	2d48 <fdiv_n+0x6e>
    2d36:	3105      	adds	r1, #5
    2d38:	090c      	lsrs	r4, r1, #4
    2d3a:	d30f      	bcc.n	2d5c <fdiv_n+0x82>
    2d3c:	08c9      	lsrs	r1, r1, #3
    2d3e:	0280      	lsls	r0, r0, #10
    2d40:	4351      	muls	r1, r2
    2d42:	1a40      	subs	r0, r0, r1
    2d44:	d40a      	bmi.n	2d5c <fdiv_n+0x82>
    2d46:	e008      	b.n	2d5a <fdiv_n+0x80>
    2d48:	3301      	adds	r3, #1
    2d4a:	3109      	adds	r1, #9
    2d4c:	094c      	lsrs	r4, r1, #5
    2d4e:	d305      	bcc.n	2d5c <fdiv_n+0x82>
    2d50:	0909      	lsrs	r1, r1, #4
    2d52:	0240      	lsls	r0, r0, #9
    2d54:	4351      	muls	r1, r2
    2d56:	1a40      	subs	r0, r0, r1
    2d58:	d400      	bmi.n	2d5c <fdiv_n+0x82>
    2d5a:	3401      	adds	r4, #1
    2d5c:	2bfe      	cmp	r3, #254	; 0xfe
    2d5e:	d209      	bcs.n	2d74 <retinf+0x8>
    2d60:	05d9      	lsls	r1, r3, #23
    2d62:	1860      	adds	r0, r4, r1
    2d64:	1980      	adds	r0, r0, r6
    2d66:	bd70      	pop	{r4, r5, r6, pc}
    2d68:	2bff      	cmp	r3, #255	; 0xff
    2d6a:	d10c      	bne.n	2d86 <retzero>

00002d6c <retinf>:
    2d6c:	20ff      	movs	r0, #255	; 0xff
    2d6e:	05c0      	lsls	r0, r0, #23
    2d70:	4330      	orrs	r0, r6
    2d72:	bd70      	pop	{r4, r5, r6, pc}
    2d74:	dafa      	bge.n	2d6c <retinf>
    2d76:	1c59      	adds	r1, r3, #1
    2d78:	d105      	bne.n	2d86 <retzero>
    2d7a:	0e61      	lsrs	r1, r4, #25
    2d7c:	d303      	bcc.n	2d86 <retzero>
    2d7e:	2001      	movs	r0, #1
    2d80:	05c0      	lsls	r0, r0, #23
    2d82:	4330      	orrs	r0, r6
    2d84:	bd70      	pop	{r4, r5, r6, pc}

00002d86 <retzero>:
    2d86:	0030      	movs	r0, r6
    2d88:	bd70      	pop	{r4, r5, r6, pc}
    2d8a:	46c0      	nop			; (mov r8, r8)

00002d8c <mufp_fsqrt>:
    2d8c:	b410      	push	{r4}
    2d8e:	0041      	lsls	r1, r0, #1
    2d90:	d23a      	bcs.n	2e08 <sq_0>
    2d92:	0209      	lsls	r1, r1, #8
    2d94:	0a49      	lsrs	r1, r1, #9
    2d96:	2201      	movs	r2, #1
    2d98:	05d2      	lsls	r2, r2, #23
    2d9a:	1889      	adds	r1, r1, r2
    2d9c:	0dc2      	lsrs	r2, r0, #23
    2d9e:	d03a      	beq.n	2e16 <sq_2>
    2da0:	2aff      	cmp	r2, #255	; 0xff
    2da2:	d036      	beq.n	2e12 <sq_1>
    2da4:	327d      	adds	r2, #125	; 0x7d
    2da6:	1052      	asrs	r2, r2, #1
    2da8:	d300      	bcc.n	2dac <mufp_fsqrt+0x20>
    2daa:	0049      	lsls	r1, r1, #1
    2dac:	a41a      	add	r4, pc, #104	; (adr r4, 2e18 <sq_2+0x2>)
    2dae:	0d4b      	lsrs	r3, r1, #21
    2db0:	5ce4      	ldrb	r4, [r4, r3]
    2db2:	09c8      	lsrs	r0, r1, #7
    2db4:	4360      	muls	r0, r4
    2db6:	4360      	muls	r0, r4
    2db8:	1300      	asrs	r0, r0, #12
    2dba:	4360      	muls	r0, r4
    2dbc:	1340      	asrs	r0, r0, #13
    2dbe:	0224      	lsls	r4, r4, #8
    2dc0:	1a24      	subs	r4, r4, r0
    2dc2:	34aa      	adds	r4, #170	; 0xaa
    2dc4:	0020      	movs	r0, r4
    2dc6:	4340      	muls	r0, r0
    2dc8:	0bc0      	lsrs	r0, r0, #15
    2dca:	0a0b      	lsrs	r3, r1, #8
    2dcc:	4358      	muls	r0, r3
    2dce:	1300      	asrs	r0, r0, #12
    2dd0:	4360      	muls	r0, r4
    2dd2:	1540      	asrs	r0, r0, #21
    2dd4:	1a24      	subs	r4, r4, r0
    2dd6:	4363      	muls	r3, r4
    2dd8:	0bdb      	lsrs	r3, r3, #15
    2dda:	0018      	movs	r0, r3
    2ddc:	4340      	muls	r0, r0
    2dde:	0249      	lsls	r1, r1, #9
    2de0:	1a08      	subs	r0, r1, r0
    2de2:	1140      	asrs	r0, r0, #5
    2de4:	4344      	muls	r4, r0
    2de6:	01db      	lsls	r3, r3, #7
    2de8:	13e0      	asrs	r0, r4, #15
    2dea:	3010      	adds	r0, #16
    2dec:	1180      	asrs	r0, r0, #6
    2dee:	4403      	add	r3, r0
    2df0:	d306      	bcc.n	2e00 <sq_3>
    2df2:	461c      	mov	r4, r3
    2df4:	4164      	adcs	r4, r4
    2df6:	4364      	muls	r4, r4
    2df8:	0409      	lsls	r1, r1, #16
    2dfa:	1b09      	subs	r1, r1, r4
    2dfc:	d400      	bmi.n	2e00 <sq_3>
    2dfe:	3301      	adds	r3, #1

00002e00 <sq_3>:
    2e00:	05d2      	lsls	r2, r2, #23
    2e02:	18d0      	adds	r0, r2, r3

00002e04 <sq_6>:
    2e04:	bc10      	pop	{r4}
    2e06:	4770      	bx	lr

00002e08 <sq_0>:
    2e08:	0e09      	lsrs	r1, r1, #24
    2e0a:	d004      	beq.n	2e16 <sq_2>
    2e0c:	17c0      	asrs	r0, r0, #31

00002e0e <sq_5>:
    2e0e:	05c0      	lsls	r0, r0, #23
    2e10:	e7f8      	b.n	2e04 <sq_6>

00002e12 <sq_1>:
    2e12:	0dc0      	lsrs	r0, r0, #23
    2e14:	e7fb      	b.n	2e0e <sq_5>

00002e16 <sq_2>:
    2e16:	0fc0      	lsrs	r0, r0, #31
    2e18:	07c0      	lsls	r0, r0, #31
    2e1a:	e7f3      	b.n	2e04 <sq_6>

00002e1c <rsqrtapp>:
    2e1c:	bbc9daf1 	bllt	ff2799e8 <IOPORT+0x2f2799e8>
    2e20:	979ea6b0 			; <UNDEFINED> instruction: 0x979ea6b0
    2e24:	82868b91 	addhi	r8, r6, #148480	; 0x24400

00002e28 <mufp_lib_end>:
    2e28:	80000000 	andhi	r0, r0, r0
    2e2c:	007fffff 	ldrshteq	pc, [pc], #-255	; <UNPREDICTABLE>

00002e30 <mufp_dsub>:
    2e30:	b5f0      	push	{r4, r5, r6, r7, lr}
    2e32:	2401      	movs	r4, #1
    2e34:	07e4      	lsls	r4, r4, #31
    2e36:	4063      	eors	r3, r4
    2e38:	e001      	b.n	2e3e <da_entry>
    2e3a:	46c0      	nop			; (mov r8, r8)

00002e3c <mufp_dadd>:
    2e3c:	b5f0      	push	{r4, r5, r6, r7, lr}

00002e3e <da_entry>:
    2e3e:	0d0c      	lsrs	r4, r1, #20
    2e40:	0fcf      	lsrs	r7, r1, #31
    2e42:	1e66      	subs	r6, r4, #1
    2e44:	0536      	lsls	r6, r6, #20
    2e46:	1b89      	subs	r1, r1, r6
    2e48:	0564      	lsls	r4, r4, #21
    2e4a:	d303      	bcc.n	2e54 <l0_1>
    2e4c:	43c9      	mvns	r1, r1
    2e4e:	4240      	negs	r0, r0
    2e50:	d300      	bcc.n	2e54 <l0_1>
    2e52:	3101      	adds	r1, #1

00002e54 <l0_1>:
    2e54:	0d64      	lsrs	r4, r4, #21
    2e56:	d003      	beq.n	2e60 <l0_2>
    2e58:	1c66      	adds	r6, r4, #1
    2e5a:	0af6      	lsrs	r6, r6, #11
    2e5c:	d007      	beq.n	2e6e <l0_3>
    2e5e:	1be4      	subs	r4, r4, r7

00002e60 <l0_2>:
    2e60:	2000      	movs	r0, #0
    2e62:	007f      	lsls	r7, r7, #1
    2e64:	1c79      	adds	r1, r7, #1
    2e66:	0789      	lsls	r1, r1, #30
    2e68:	1289      	asrs	r1, r1, #10
    2e6a:	3c80      	subs	r4, #128	; 0x80
    2e6c:	0324      	lsls	r4, r4, #12

00002e6e <l0_3>:
    2e6e:	0d1d      	lsrs	r5, r3, #20
    2e70:	0fdf      	lsrs	r7, r3, #31
    2e72:	1e6e      	subs	r6, r5, #1
    2e74:	0536      	lsls	r6, r6, #20
    2e76:	1b9b      	subs	r3, r3, r6
    2e78:	056d      	lsls	r5, r5, #21
    2e7a:	d303      	bcc.n	2e84 <l1_1>
    2e7c:	43db      	mvns	r3, r3
    2e7e:	4252      	negs	r2, r2
    2e80:	d300      	bcc.n	2e84 <l1_1>
    2e82:	3301      	adds	r3, #1

00002e84 <l1_1>:
    2e84:	0d6d      	lsrs	r5, r5, #21
    2e86:	d003      	beq.n	2e90 <l1_2>
    2e88:	1c6e      	adds	r6, r5, #1
    2e8a:	0af6      	lsrs	r6, r6, #11
    2e8c:	d007      	beq.n	2e9e <l1_3>
    2e8e:	1bed      	subs	r5, r5, r7

00002e90 <l1_2>:
    2e90:	2200      	movs	r2, #0
    2e92:	007f      	lsls	r7, r7, #1
    2e94:	1c7b      	adds	r3, r7, #1
    2e96:	079b      	lsls	r3, r3, #30
    2e98:	129b      	asrs	r3, r3, #10
    2e9a:	3d80      	subs	r5, #128	; 0x80
    2e9c:	032d      	lsls	r5, r5, #12

00002e9e <l1_3>:
    2e9e:	1b2f      	subs	r7, r5, r4
    2ea0:	1b66      	subs	r6, r4, r5
    2ea2:	d458      	bmi.n	2f56 <da_ygtx>
    2ea4:	46a4      	mov	ip, r4
    2ea6:	2e20      	cmp	r6, #32
    2ea8:	da46      	bge.n	2f38 <da_xrgty>
    2eaa:	3720      	adds	r7, #32
    2eac:	0014      	movs	r4, r2
    2eae:	40bc      	lsls	r4, r7

00002eb0 <da_xgty0>:
    2eb0:	001d      	movs	r5, r3
    2eb2:	40bd      	lsls	r5, r7
    2eb4:	40f2      	lsrs	r2, r6
    2eb6:	4133      	asrs	r3, r6
    2eb8:	432a      	orrs	r2, r5

00002eba <da_add>:
    2eba:	1880      	adds	r0, r0, r2
    2ebc:	4159      	adcs	r1, r3

00002ebe <da_pack>:
    2ebe:	0fcb      	lsrs	r3, r1, #31
    2ec0:	d005      	beq.n	2ece <da_pack+0x10>
    2ec2:	43c9      	mvns	r1, r1
    2ec4:	43c0      	mvns	r0, r0
    2ec6:	2200      	movs	r2, #0
    2ec8:	4264      	negs	r4, r4
    2eca:	4150      	adcs	r0, r2
    2ecc:	4151      	adcs	r1, r2
    2ece:	4662      	mov	r2, ip
    2ed0:	0d4d      	lsrs	r5, r1, #21
    2ed2:	d128      	bne.n	2f26 <da_0>
    2ed4:	0d0d      	lsrs	r5, r1, #20
    2ed6:	d107      	bne.n	2ee8 <da_1>
    2ed8:	2800      	cmp	r0, #0
    2eda:	d01f      	beq.n	2f1c <da_5>

00002edc <da_2>:
    2edc:	1924      	adds	r4, r4, r4
    2ede:	4140      	adcs	r0, r0
    2ee0:	4149      	adcs	r1, r1
    2ee2:	3a01      	subs	r2, #1
    2ee4:	0d0d      	lsrs	r5, r1, #20
    2ee6:	d0f9      	beq.n	2edc <da_2>

00002ee8 <da_1>:
    2ee8:	0064      	lsls	r4, r4, #1
    2eea:	d306      	bcc.n	2efa <da_3>

00002eec <da_4>:
    2eec:	3001      	adds	r0, #1
    2eee:	d300      	bcc.n	2ef2 <da_4+0x6>
    2ef0:	3101      	adds	r1, #1
    2ef2:	2c00      	cmp	r4, #0
    2ef4:	d101      	bne.n	2efa <da_3>
    2ef6:	0840      	lsrs	r0, r0, #1
    2ef8:	0040      	lsls	r0, r0, #1

00002efa <da_3>:
    2efa:	3a01      	subs	r2, #1
    2efc:	d40b      	bmi.n	2f16 <da_6>
    2efe:	1c94      	adds	r4, r2, #2
    2f00:	0ae4      	lsrs	r4, r4, #11
    2f02:	d104      	bne.n	2f0e <da_7>
    2f04:	0512      	lsls	r2, r2, #20
    2f06:	4411      	add	r1, r2
    2f08:	07db      	lsls	r3, r3, #31
    2f0a:	4419      	add	r1, r3
    2f0c:	bdf0      	pop	{r4, r5, r6, r7, pc}

00002f0e <da_7>:
    2f0e:	07d9      	lsls	r1, r3, #31
    2f10:	4b20      	ldr	r3, [pc, #128]	; (2f94 <da_xmgty+0x4>)
    2f12:	4319      	orrs	r1, r3
    2f14:	e000      	b.n	2f18 <da_6+0x2>

00002f16 <da_6>:
    2f16:	07d9      	lsls	r1, r3, #31
    2f18:	2000      	movs	r0, #0
    2f1a:	bdf0      	pop	{r4, r5, r6, r7, pc}

00002f1c <da_5>:
    2f1c:	2900      	cmp	r1, #0
    2f1e:	d1dd      	bne.n	2edc <da_2>
    2f20:	2c00      	cmp	r4, #0
    2f22:	d1db      	bne.n	2edc <da_2>
    2f24:	bdf0      	pop	{r4, r5, r6, r7, pc}

00002f26 <da_0>:
    2f26:	3201      	adds	r2, #1
    2f28:	07c6      	lsls	r6, r0, #31
    2f2a:	0840      	lsrs	r0, r0, #1
    2f2c:	07cd      	lsls	r5, r1, #31
    2f2e:	4328      	orrs	r0, r5
    2f30:	0849      	lsrs	r1, r1, #1
    2f32:	2e00      	cmp	r6, #0
    2f34:	d0e1      	beq.n	2efa <da_3>
    2f36:	e7d9      	b.n	2eec <da_4>

00002f38 <da_xrgty>:
    2f38:	2e3c      	cmp	r6, #60	; 0x3c
    2f3a:	da29      	bge.n	2f90 <da_xmgty>
    2f3c:	3e20      	subs	r6, #32
    2f3e:	3740      	adds	r7, #64	; 0x40
    2f40:	0014      	movs	r4, r2
    2f42:	40bc      	lsls	r4, r7
    2f44:	d000      	beq.n	2f48 <da_xrgty+0x10>
    2f46:	2401      	movs	r4, #1
    2f48:	40f2      	lsrs	r2, r6
    2f4a:	4314      	orrs	r4, r2
    2f4c:	001a      	movs	r2, r3
    2f4e:	40bb      	lsls	r3, r7
    2f50:	431c      	orrs	r4, r3
    2f52:	17d3      	asrs	r3, r2, #31
    2f54:	e7ac      	b.n	2eb0 <da_xgty0>

00002f56 <da_ygtx>:
    2f56:	46ac      	mov	ip, r5
    2f58:	2f20      	cmp	r7, #32
    2f5a:	da08      	bge.n	2f6e <da_yrgtx>
    2f5c:	3620      	adds	r6, #32
    2f5e:	0004      	movs	r4, r0
    2f60:	40b4      	lsls	r4, r6

00002f62 <da_ygtx0>:
    2f62:	000d      	movs	r5, r1
    2f64:	40b5      	lsls	r5, r6
    2f66:	40f8      	lsrs	r0, r7
    2f68:	4139      	asrs	r1, r7
    2f6a:	4328      	orrs	r0, r5
    2f6c:	e7a5      	b.n	2eba <da_add>

00002f6e <da_yrgtx>:
    2f6e:	2f3c      	cmp	r7, #60	; 0x3c
    2f70:	da0c      	bge.n	2f8c <da_ymgtx>
    2f72:	3f20      	subs	r7, #32
    2f74:	3640      	adds	r6, #64	; 0x40
    2f76:	0004      	movs	r4, r0
    2f78:	40b4      	lsls	r4, r6
    2f7a:	d000      	beq.n	2f7e <da_yrgtx+0x10>
    2f7c:	2401      	movs	r4, #1
    2f7e:	40f8      	lsrs	r0, r7
    2f80:	4304      	orrs	r4, r0
    2f82:	0008      	movs	r0, r1
    2f84:	40b1      	lsls	r1, r6
    2f86:	430c      	orrs	r4, r1
    2f88:	17c1      	asrs	r1, r0, #31
    2f8a:	e7ea      	b.n	2f62 <da_ygtx0>

00002f8c <da_ymgtx>:
    2f8c:	0010      	movs	r0, r2
    2f8e:	0019      	movs	r1, r3

00002f90 <da_xmgty>:
    2f90:	2400      	movs	r4, #0
    2f92:	e794      	b.n	2ebe <da_pack>
    2f94:	7ff00000 	svcvc	0x00f00000	; IMB

00002f98 <mufp_dmul>:
    2f98:	b5f0      	push	{r4, r5, r6, r7, lr}
    2f9a:	0d0c      	lsrs	r4, r1, #20
    2f9c:	1e66      	subs	r6, r4, #1
    2f9e:	0536      	lsls	r6, r6, #20
    2fa0:	1b89      	subs	r1, r1, r6
    2fa2:	0ae6      	lsrs	r6, r4, #11
    2fa4:	0564      	lsls	r4, r4, #21
    2fa6:	0d64      	lsrs	r4, r4, #21
    2fa8:	d002      	beq.n	2fb0 <l2_1>
    2faa:	1c65      	adds	r5, r4, #1
    2fac:	0aed      	lsrs	r5, r5, #11
    2fae:	d004      	beq.n	2fba <l2_2>

00002fb0 <l2_1>:
    2fb0:	2000      	movs	r0, #0
    2fb2:	2101      	movs	r1, #1
    2fb4:	0509      	lsls	r1, r1, #20
    2fb6:	3c80      	subs	r4, #128	; 0x80
    2fb8:	0324      	lsls	r4, r4, #12

00002fba <l2_2>:
    2fba:	46a4      	mov	ip, r4
    2fbc:	0d1c      	lsrs	r4, r3, #20
    2fbe:	1e67      	subs	r7, r4, #1
    2fc0:	053f      	lsls	r7, r7, #20
    2fc2:	1bdb      	subs	r3, r3, r7
    2fc4:	0ae7      	lsrs	r7, r4, #11
    2fc6:	0564      	lsls	r4, r4, #21
    2fc8:	0d64      	lsrs	r4, r4, #21
    2fca:	d002      	beq.n	2fd2 <l3_1>
    2fcc:	1c65      	adds	r5, r4, #1
    2fce:	0aed      	lsrs	r5, r5, #11
    2fd0:	d004      	beq.n	2fdc <l3_2>

00002fd2 <l3_1>:
    2fd2:	2200      	movs	r2, #0
    2fd4:	2301      	movs	r3, #1
    2fd6:	051b      	lsls	r3, r3, #20
    2fd8:	3c80      	subs	r4, #128	; 0x80
    2fda:	0324      	lsls	r4, r4, #12

00002fdc <l3_2>:
    2fdc:	4077      	eors	r7, r6
    2fde:	4464      	add	r4, ip
    2fe0:	b497      	push	{r0, r1, r2, r4, r7}
    2fe2:	b284      	uxth	r4, r0
    2fe4:	b296      	uxth	r6, r2
    2fe6:	4374      	muls	r4, r6
    2fe8:	0c07      	lsrs	r7, r0, #16
    2fea:	437e      	muls	r6, r7
    2fec:	0c15      	lsrs	r5, r2, #16
    2fee:	436f      	muls	r7, r5
    2ff0:	b280      	uxth	r0, r0
    2ff2:	4368      	muls	r0, r5
    2ff4:	1836      	adds	r6, r6, r0
    2ff6:	d302      	bcc.n	2ffe <l4_1>
    2ff8:	2001      	movs	r0, #1
    2ffa:	0400      	lsls	r0, r0, #16
    2ffc:	183f      	adds	r7, r7, r0

00002ffe <l4_1>:
    2ffe:	0430      	lsls	r0, r6, #16
    3000:	0c35      	lsrs	r5, r6, #16
    3002:	1900      	adds	r0, r0, r4
    3004:	417d      	adcs	r5, r7
    3006:	4684      	mov	ip, r0
    3008:	b288      	uxth	r0, r1
    300a:	b29a      	uxth	r2, r3
    300c:	4350      	muls	r0, r2
    300e:	0c0c      	lsrs	r4, r1, #16
    3010:	4362      	muls	r2, r4
    3012:	0c1f      	lsrs	r7, r3, #16
    3014:	437c      	muls	r4, r7
    3016:	b28e      	uxth	r6, r1
    3018:	437e      	muls	r6, r7
    301a:	1992      	adds	r2, r2, r6
    301c:	d302      	bcc.n	3024 <l5_1>
    301e:	2601      	movs	r6, #1
    3020:	0436      	lsls	r6, r6, #16
    3022:	19a4      	adds	r4, r4, r6

00003024 <l5_1>:
    3024:	0416      	lsls	r6, r2, #16
    3026:	0c17      	lsrs	r7, r2, #16
    3028:	1836      	adds	r6, r6, r0
    302a:	4167      	adcs	r7, r4
    302c:	bc01      	pop	{r0}
    302e:	b281      	uxth	r1, r0
    3030:	b29a      	uxth	r2, r3
    3032:	4351      	muls	r1, r2
    3034:	0c04      	lsrs	r4, r0, #16
    3036:	4362      	muls	r2, r4
    3038:	0c1b      	lsrs	r3, r3, #16
    303a:	435c      	muls	r4, r3
    303c:	b280      	uxth	r0, r0
    303e:	4358      	muls	r0, r3
    3040:	1812      	adds	r2, r2, r0
    3042:	d302      	bcc.n	304a <l6_1>
    3044:	2001      	movs	r0, #1
    3046:	0400      	lsls	r0, r0, #16
    3048:	1824      	adds	r4, r4, r0

0000304a <l6_1>:
    304a:	0410      	lsls	r0, r2, #16
    304c:	0c13      	lsrs	r3, r2, #16
    304e:	1840      	adds	r0, r0, r1
    3050:	4163      	adcs	r3, r4
    3052:	182d      	adds	r5, r5, r0
    3054:	415e      	adcs	r6, r3
    3056:	2000      	movs	r0, #0
    3058:	4147      	adcs	r7, r0
    305a:	bc06      	pop	{r1, r2}
    305c:	b288      	uxth	r0, r1
    305e:	b293      	uxth	r3, r2
    3060:	4358      	muls	r0, r3
    3062:	0c0c      	lsrs	r4, r1, #16
    3064:	4363      	muls	r3, r4
    3066:	0c12      	lsrs	r2, r2, #16
    3068:	4354      	muls	r4, r2
    306a:	b289      	uxth	r1, r1
    306c:	4351      	muls	r1, r2
    306e:	185b      	adds	r3, r3, r1
    3070:	d302      	bcc.n	3078 <l7_1>
    3072:	2101      	movs	r1, #1
    3074:	0409      	lsls	r1, r1, #16
    3076:	1864      	adds	r4, r4, r1

00003078 <l7_1>:
    3078:	0419      	lsls	r1, r3, #16
    307a:	0c1a      	lsrs	r2, r3, #16
    307c:	1809      	adds	r1, r1, r0
    307e:	4162      	adcs	r2, r4
    3080:	186d      	adds	r5, r5, r1
    3082:	4156      	adcs	r6, r2
    3084:	2000      	movs	r0, #0
    3086:	4147      	adcs	r7, r0
    3088:	bc18      	pop	{r3, r4}
    308a:	02f9      	lsls	r1, r7, #11
    308c:	0d72      	lsrs	r2, r6, #21
    308e:	4311      	orrs	r1, r2
    3090:	02f0      	lsls	r0, r6, #11
    3092:	0d6a      	lsrs	r2, r5, #21
    3094:	4310      	orrs	r0, r2
    3096:	02ed      	lsls	r5, r5, #11
    3098:	0d0a      	lsrs	r2, r1, #20
    309a:	d103      	bne.n	30a4 <l7_1+0x2c>
    309c:	196d      	adds	r5, r5, r5
    309e:	4140      	adcs	r0, r0
    30a0:	4149      	adcs	r1, r1
    30a2:	3b01      	subs	r3, #1
    30a4:	4e12      	ldr	r6, [pc, #72]	; (30f0 <dm_1+0xa>)
    30a6:	1b9b      	subs	r3, r3, r6
    30a8:	0076      	lsls	r6, r6, #1
    30aa:	42b3      	cmp	r3, r6
    30ac:	d20e      	bcs.n	30cc <dm_0>
    30ae:	006d      	lsls	r5, r5, #1
    30b0:	d307      	bcc.n	30c2 <l7_1+0x4a>
    30b2:	3001      	adds	r0, #1
    30b4:	2600      	movs	r6, #0
    30b6:	4171      	adcs	r1, r6
    30b8:	4666      	mov	r6, ip
    30ba:	4335      	orrs	r5, r6
    30bc:	d101      	bne.n	30c2 <l7_1+0x4a>
    30be:	0840      	lsrs	r0, r0, #1
    30c0:	0040      	lsls	r0, r0, #1
    30c2:	051b      	lsls	r3, r3, #20
    30c4:	18c9      	adds	r1, r1, r3

000030c6 <dm_2>:
    30c6:	07e4      	lsls	r4, r4, #31
    30c8:	4421      	add	r1, r4
    30ca:	bdf0      	pop	{r4, r5, r6, r7, pc}

000030cc <dm_0>:
    30cc:	da0b      	bge.n	30e6 <dm_1>
    30ce:	3301      	adds	r3, #1
    30d0:	d106      	bne.n	30e0 <dm_0+0x14>
    30d2:	3001      	adds	r0, #1
    30d4:	d104      	bne.n	30e0 <dm_0+0x14>
    30d6:	3101      	adds	r1, #1
    30d8:	0d4f      	lsrs	r7, r1, #21
    30da:	d001      	beq.n	30e0 <dm_0+0x14>
    30dc:	0849      	lsrs	r1, r1, #1
    30de:	e7f2      	b.n	30c6 <dm_2>
    30e0:	07e1      	lsls	r1, r4, #31
    30e2:	2000      	movs	r0, #0
    30e4:	bdf0      	pop	{r4, r5, r6, r7, pc}

000030e6 <dm_1>:
    30e6:	3601      	adds	r6, #1
    30e8:	0531      	lsls	r1, r6, #20
    30ea:	2000      	movs	r0, #0
    30ec:	e7eb      	b.n	30c6 <dm_2>
    30ee:	03ff0000 	mvnseq	r0, #0
	...

000030f4 <mufp_ddiv>:
    30f4:	b5f0      	push	{r4, r5, r6, r7, lr}

000030f6 <ddiv0>:
    30f6:	0d1c      	lsrs	r4, r3, #20
    30f8:	1e67      	subs	r7, r4, #1
    30fa:	053f      	lsls	r7, r7, #20
    30fc:	1bdb      	subs	r3, r3, r7
    30fe:	0ae7      	lsrs	r7, r4, #11
    3100:	0564      	lsls	r4, r4, #21
    3102:	0d64      	lsrs	r4, r4, #21
    3104:	d002      	beq.n	310c <l8_1>
    3106:	1c66      	adds	r6, r4, #1
    3108:	0af6      	lsrs	r6, r6, #11
    310a:	d004      	beq.n	3116 <l8_2>

0000310c <l8_1>:
    310c:	2200      	movs	r2, #0
    310e:	2301      	movs	r3, #1
    3110:	051b      	lsls	r3, r3, #20
    3112:	3c80      	subs	r4, #128	; 0x80
    3114:	0324      	lsls	r4, r4, #12

00003116 <l8_2>:
    3116:	25d0      	movs	r5, #208	; 0xd0
    3118:	062d      	lsls	r5, r5, #24
    311a:	2600      	movs	r6, #0
    311c:	43f6      	mvns	r6, r6
    311e:	662e      	str	r6, [r5, #96]	; 0x60
    3120:	091e      	lsrs	r6, r3, #4
    3122:	666e      	str	r6, [r5, #100]	; 0x64
    3124:	0fce      	lsrs	r6, r1, #31
    3126:	19f6      	adds	r6, r6, r7
    3128:	46b4      	mov	ip, r6
    312a:	0049      	lsls	r1, r1, #1
    312c:	0d4f      	lsrs	r7, r1, #21
    312e:	d002      	beq.n	3136 <l8_2+0x20>
    3130:	1c7e      	adds	r6, r7, #1
    3132:	0af6      	lsrs	r6, r6, #11
    3134:	d003      	beq.n	313e <l8_2+0x28>
    3136:	2000      	movs	r0, #0
    3138:	2100      	movs	r1, #0
    313a:	3f40      	subs	r7, #64	; 0x40
    313c:	033f      	lsls	r7, r7, #12
    313e:	1b3e      	subs	r6, r7, r4
    3140:	00b6      	lsls	r6, r6, #2
    3142:	44b4      	add	ip, r6
    3144:	3f01      	subs	r7, #1
    3146:	057f      	lsls	r7, r7, #21
    3148:	1bc9      	subs	r1, r1, r7
    314a:	0849      	lsrs	r1, r1, #1
    314c:	6f2e      	ldr	r6, [r5, #112]	; 0x70
    314e:	3601      	adds	r6, #1
    3150:	0876      	lsrs	r6, r6, #1
    3152:	029c      	lsls	r4, r3, #10
    3154:	0d95      	lsrs	r5, r2, #22
    3156:	4325      	orrs	r5, r4
    3158:	4375      	muls	r5, r6
    315a:	13ed      	asrs	r5, r5, #15
    315c:	4375      	muls	r5, r6
    315e:	13ad      	asrs	r5, r5, #14
    3160:	3501      	adds	r5, #1
    3162:	106d      	asrs	r5, r5, #1
    3164:	03f6      	lsls	r6, r6, #15
    3166:	1b76      	subs	r6, r6, r5
    3168:	b40c      	push	{r2, r3}
    316a:	02cc      	lsls	r4, r1, #11
    316c:	0d45      	lsrs	r5, r0, #21
    316e:	432c      	orrs	r4, r5
    3170:	b2a2      	uxth	r2, r4
    3172:	b2b3      	uxth	r3, r6
    3174:	435a      	muls	r2, r3
    3176:	0c27      	lsrs	r7, r4, #16
    3178:	437b      	muls	r3, r7
    317a:	0c35      	lsrs	r5, r6, #16
    317c:	436f      	muls	r7, r5
    317e:	b2a4      	uxth	r4, r4
    3180:	436c      	muls	r4, r5
    3182:	191b      	adds	r3, r3, r4
    3184:	d302      	bcc.n	318c <l9_1>
    3186:	2401      	movs	r4, #1
    3188:	0424      	lsls	r4, r4, #16
    318a:	193f      	adds	r7, r7, r4

0000318c <l9_1>:
    318c:	041c      	lsls	r4, r3, #16
    318e:	0c1d      	lsrs	r5, r3, #16
    3190:	18a4      	adds	r4, r4, r2
    3192:	417d      	adcs	r5, r7
    3194:	1924      	adds	r4, r4, r4
    3196:	416d      	adcs	r5, r5
    3198:	9a00      	ldr	r2, [sp, #0]
    319a:	b291      	uxth	r1, r2
    319c:	b2ac      	uxth	r4, r5
    319e:	4361      	muls	r1, r4
    31a0:	0c17      	lsrs	r7, r2, #16
    31a2:	437c      	muls	r4, r7
    31a4:	0c2b      	lsrs	r3, r5, #16
    31a6:	435f      	muls	r7, r3
    31a8:	b292      	uxth	r2, r2
    31aa:	435a      	muls	r2, r3
    31ac:	18a4      	adds	r4, r4, r2
    31ae:	d302      	bcc.n	31b6 <l10_1>
    31b0:	2201      	movs	r2, #1
    31b2:	0412      	lsls	r2, r2, #16
    31b4:	18bf      	adds	r7, r7, r2

000031b6 <l10_1>:
    31b6:	0422      	lsls	r2, r4, #16
    31b8:	0c23      	lsrs	r3, r4, #16
    31ba:	1852      	adds	r2, r2, r1
    31bc:	417b      	adcs	r3, r7
    31be:	9c01      	ldr	r4, [sp, #4]
    31c0:	436c      	muls	r4, r5
    31c2:	191b      	adds	r3, r3, r4
    31c4:	0e52      	lsrs	r2, r2, #25
    31c6:	01d9      	lsls	r1, r3, #7
    31c8:	430a      	orrs	r2, r1
    31ca:	0144      	lsls	r4, r0, #5
    31cc:	1aa0      	subs	r0, r4, r2
    31ce:	b281      	uxth	r1, r0
    31d0:	b2b2      	uxth	r2, r6
    31d2:	4351      	muls	r1, r2
    31d4:	1403      	asrs	r3, r0, #16
    31d6:	435a      	muls	r2, r3
    31d8:	0c36      	lsrs	r6, r6, #16
    31da:	4373      	muls	r3, r6
    31dc:	b287      	uxth	r7, r0
    31de:	4377      	muls	r7, r6
    31e0:	17d6      	asrs	r6, r2, #31
    31e2:	19d2      	adds	r2, r2, r7
    31e4:	2700      	movs	r7, #0
    31e6:	417e      	adcs	r6, r7
    31e8:	0436      	lsls	r6, r6, #16
    31ea:	199b      	adds	r3, r3, r6
    31ec:	0417      	lsls	r7, r2, #16
    31ee:	0c16      	lsrs	r6, r2, #16
    31f0:	187f      	adds	r7, r7, r1
    31f2:	415e      	adcs	r6, r3
    31f4:	1673      	asrs	r3, r6, #25
    31f6:	18ed      	adds	r5, r5, r3
    31f8:	01f3      	lsls	r3, r6, #7
    31fa:	2600      	movs	r6, #0
    31fc:	3380      	adds	r3, #128	; 0x80
    31fe:	4175      	adcs	r5, r6
    3200:	0fa9      	lsrs	r1, r5, #30
    3202:	d106      	bne.n	3212 <dd_0>
    3204:	0064      	lsls	r4, r4, #1
    3206:	0a69      	lsrs	r1, r5, #9
    3208:	05e8      	lsls	r0, r5, #23
    320a:	0a5b      	lsrs	r3, r3, #9
    320c:	4318      	orrs	r0, r3
    320e:	d209      	bcs.n	3224 <dd_1>
    3210:	e02f      	b.n	3272 <dd_2>

00003212 <dd_0>:
    3212:	2204      	movs	r2, #4
    3214:	4494      	add	ip, r2
    3216:	3380      	adds	r3, #128	; 0x80
    3218:	4175      	adcs	r5, r6
    321a:	0aa9      	lsrs	r1, r5, #10
    321c:	05a8      	lsls	r0, r5, #22
    321e:	0a9b      	lsrs	r3, r3, #10
    3220:	4318      	orrs	r0, r3
    3222:	d326      	bcc.n	3272 <dd_2>

00003224 <dd_1>:
    3224:	4140      	adcs	r0, r0
    3226:	4149      	adcs	r1, r1
    3228:	0424      	lsls	r4, r4, #16
    322a:	9a00      	ldr	r2, [sp, #0]
    322c:	9b01      	ldr	r3, [sp, #4]
    322e:	000d      	movs	r5, r1
    3230:	4355      	muls	r5, r2
    3232:	1b64      	subs	r4, r4, r5
    3234:	4343      	muls	r3, r0
    3236:	1ae4      	subs	r4, r4, r3
    3238:	b295      	uxth	r5, r2
    323a:	b286      	uxth	r6, r0
    323c:	4375      	muls	r5, r6
    323e:	0c17      	lsrs	r7, r2, #16
    3240:	437e      	muls	r6, r7
    3242:	0c03      	lsrs	r3, r0, #16
    3244:	435f      	muls	r7, r3
    3246:	b292      	uxth	r2, r2
    3248:	435a      	muls	r2, r3
    324a:	18b6      	adds	r6, r6, r2
    324c:	d302      	bcc.n	3254 <l12_1>
    324e:	2201      	movs	r2, #1
    3250:	0412      	lsls	r2, r2, #16
    3252:	18bf      	adds	r7, r7, r2

00003254 <l12_1>:
    3254:	0432      	lsls	r2, r6, #16
    3256:	0c33      	lsrs	r3, r6, #16
    3258:	1952      	adds	r2, r2, r5
    325a:	417b      	adcs	r3, r7
    325c:	4252      	negs	r2, r2
    325e:	419c      	sbcs	r4, r3
    3260:	2c00      	cmp	r4, #0
    3262:	d402      	bmi.n	326a <l12_1+0x16>
    3264:	2200      	movs	r2, #0
    3266:	3001      	adds	r0, #1
    3268:	4151      	adcs	r1, r2
    326a:	0840      	lsrs	r0, r0, #1
    326c:	07ca      	lsls	r2, r1, #31
    326e:	4310      	orrs	r0, r2
    3270:	0849      	lsrs	r1, r1, #1

00003272 <dd_2>:
    3272:	b002      	add	sp, #8
    3274:	4662      	mov	r2, ip
    3276:	07d7      	lsls	r7, r2, #31
    3278:	1092      	asrs	r2, r2, #2
    327a:	4b59      	ldr	r3, [pc, #356]	; (33e0 <l14_1+0x70>)
    327c:	18d2      	adds	r2, r2, r3
    327e:	4b59      	ldr	r3, [pc, #356]	; (33e4 <l14_1+0x74>)
    3280:	429a      	cmp	r2, r3
    3282:	d203      	bcs.n	328c <dd_3>
    3284:	0512      	lsls	r2, r2, #20
    3286:	1889      	adds	r1, r1, r2

00003288 <dd_5>:
    3288:	19c9      	adds	r1, r1, r7
    328a:	bdf0      	pop	{r4, r5, r6, r7, pc}

0000328c <dd_3>:
    328c:	2000      	movs	r0, #0
    328e:	2a00      	cmp	r2, #0
    3290:	dc01      	bgt.n	3296 <dd_4>
    3292:	0039      	movs	r1, r7
    3294:	bdf0      	pop	{r4, r5, r6, r7, pc}

00003296 <dd_4>:
    3296:	3301      	adds	r3, #1
    3298:	0519      	lsls	r1, r3, #20
    329a:	e7f5      	b.n	3288 <dd_5>

0000329c <dq_2>:
    329c:	da07      	bge.n	32ae <dq_3>
    329e:	2100      	movs	r1, #0
    32a0:	e007      	b.n	32b2 <dq_4>

000032a2 <dq_0>:
    32a2:	0fc9      	lsrs	r1, r1, #31
    32a4:	07c9      	lsls	r1, r1, #31
    32a6:	0d52      	lsrs	r2, r2, #21
    32a8:	d003      	beq.n	32b2 <dq_4>
    32aa:	12c9      	asrs	r1, r1, #11
    32ac:	e001      	b.n	32b2 <dq_4>

000032ae <dq_3>:
    32ae:	494e      	ldr	r1, [pc, #312]	; (33e8 <l14_1+0x78>)
    32b0:	0509      	lsls	r1, r1, #20

000032b2 <dq_4>:
    32b2:	2000      	movs	r0, #0

000032b4 <dq_1>:
    32b4:	4770      	bx	lr
    32b6:	46c0      	nop			; (mov r8, r8)

000032b8 <mufp_dsqrt>:
    32b8:	004a      	lsls	r2, r1, #1
    32ba:	d2f2      	bcs.n	32a2 <dq_0>
    32bc:	0d52      	lsrs	r2, r2, #21
    32be:	3a01      	subs	r2, #1
    32c0:	4b48      	ldr	r3, [pc, #288]	; (33e4 <l14_1+0x74>)
    32c2:	429a      	cmp	r2, r3
    32c4:	d2ea      	bcs.n	329c <dq_2>
    32c6:	b5f0      	push	{r4, r5, r6, r7, lr}
    32c8:	0514      	lsls	r4, r2, #20
    32ca:	1b09      	subs	r1, r1, r4
    32cc:	0852      	lsrs	r2, r2, #1
    32ce:	d301      	bcc.n	32d4 <mufp_dsqrt+0x1c>
    32d0:	1800      	adds	r0, r0, r0
    32d2:	4149      	adcs	r1, r1
    32d4:	089b      	lsrs	r3, r3, #2
    32d6:	18d2      	adds	r2, r2, r3
    32d8:	0512      	lsls	r2, r2, #20
    32da:	4694      	mov	ip, r2
    32dc:	a441      	add	r4, pc, #260	; (adr r4, 33e4 <l14_1+0x74>)
    32de:	0c4a      	lsrs	r2, r1, #17
    32e0:	5ca2      	ldrb	r2, [r4, r2]
    32e2:	090b      	lsrs	r3, r1, #4
    32e4:	4353      	muls	r3, r2
    32e6:	4353      	muls	r3, r2
    32e8:	131b      	asrs	r3, r3, #12
    32ea:	4353      	muls	r3, r2
    32ec:	135b      	asrs	r3, r3, #13
    32ee:	0212      	lsls	r2, r2, #8
    32f0:	1ad2      	subs	r2, r2, r3
    32f2:	0013      	movs	r3, r2
    32f4:	435b      	muls	r3, r3
    32f6:	0b5b      	lsrs	r3, r3, #13
    32f8:	084c      	lsrs	r4, r1, #1
    32fa:	4363      	muls	r3, r4
    32fc:	13db      	asrs	r3, r3, #15
    32fe:	4353      	muls	r3, r2
    3300:	15db      	asrs	r3, r3, #23
    3302:	3301      	adds	r3, #1
    3304:	105b      	asrs	r3, r3, #1
    3306:	1ad2      	subs	r2, r2, r3
    3308:	0c13      	lsrs	r3, r2, #16
    330a:	1ad2      	subs	r2, r2, r3
    330c:	0013      	movs	r3, r2
    330e:	435b      	muls	r3, r3
    3310:	0289      	lsls	r1, r1, #10
    3312:	0d84      	lsrs	r4, r0, #22
    3314:	4321      	orrs	r1, r4
    3316:	b28d      	uxth	r5, r1
    3318:	b29e      	uxth	r6, r3
    331a:	4375      	muls	r5, r6
    331c:	0c0f      	lsrs	r7, r1, #16
    331e:	437e      	muls	r6, r7
    3320:	0c1b      	lsrs	r3, r3, #16
    3322:	435f      	muls	r7, r3
    3324:	b28c      	uxth	r4, r1
    3326:	435c      	muls	r4, r3
    3328:	1936      	adds	r6, r6, r4
    332a:	d302      	bcc.n	3332 <l13_1>
    332c:	2401      	movs	r4, #1
    332e:	0424      	lsls	r4, r4, #16
    3330:	193f      	adds	r7, r7, r4

00003332 <l13_1>:
    3332:	0434      	lsls	r4, r6, #16
    3334:	0c33      	lsrs	r3, r6, #16
    3336:	1964      	adds	r4, r4, r5
    3338:	417b      	adcs	r3, r7
    333a:	019d      	lsls	r5, r3, #6
    333c:	0ea4      	lsrs	r4, r4, #26
    333e:	432c      	orrs	r4, r5
    3340:	3420      	adds	r4, #32
    3342:	b2a5      	uxth	r5, r4
    3344:	4355      	muls	r5, r2
    3346:	1424      	asrs	r4, r4, #16
    3348:	4354      	muls	r4, r2
    334a:	0c2d      	lsrs	r5, r5, #16
    334c:	1964      	adds	r4, r4, r5
    334e:	11a4      	asrs	r4, r4, #6
    3350:	03d2      	lsls	r2, r2, #15
    3352:	1b12      	subs	r2, r2, r4
    3354:	b295      	uxth	r5, r2
    3356:	b28e      	uxth	r6, r1
    3358:	4375      	muls	r5, r6
    335a:	0c17      	lsrs	r7, r2, #16
    335c:	437e      	muls	r6, r7
    335e:	0c0c      	lsrs	r4, r1, #16
    3360:	4367      	muls	r7, r4
    3362:	b293      	uxth	r3, r2
    3364:	4363      	muls	r3, r4
    3366:	18f6      	adds	r6, r6, r3
    3368:	d302      	bcc.n	3370 <l14_1>
    336a:	2301      	movs	r3, #1
    336c:	041b      	lsls	r3, r3, #16
    336e:	18ff      	adds	r7, r7, r3

00003370 <l14_1>:
    3370:	0433      	lsls	r3, r6, #16
    3372:	0c34      	lsrs	r4, r6, #16
    3374:	195b      	adds	r3, r3, r5
    3376:	417c      	adcs	r4, r7
    3378:	18db      	adds	r3, r3, r3
    337a:	4164      	adcs	r4, r4
    337c:	18db      	adds	r3, r3, r3
    337e:	2300      	movs	r3, #0
    3380:	4163      	adcs	r3, r4
    3382:	b29e      	uxth	r6, r3
    3384:	4376      	muls	r6, r6
    3386:	b29d      	uxth	r5, r3
    3388:	0c1f      	lsrs	r7, r3, #16
    338a:	437d      	muls	r5, r7
    338c:	437f      	muls	r7, r7
    338e:	046c      	lsls	r4, r5, #17
    3390:	0bed      	lsrs	r5, r5, #15
    3392:	19a4      	adds	r4, r4, r6
    3394:	417d      	adcs	r5, r7
    3396:	0206      	lsls	r6, r0, #8
    3398:	088f      	lsrs	r7, r1, #2
    339a:	1b36      	subs	r6, r6, r4
    339c:	41af      	sbcs	r7, r5
    339e:	077d      	lsls	r5, r7, #29
    33a0:	08f6      	lsrs	r6, r6, #3
    33a2:	416e      	adcs	r6, r5
    33a4:	b2b4      	uxth	r4, r6
    33a6:	b295      	uxth	r5, r2
    33a8:	436c      	muls	r4, r5
    33aa:	1437      	asrs	r7, r6, #16
    33ac:	437d      	muls	r5, r7
    33ae:	0c12      	lsrs	r2, r2, #16
    33b0:	4357      	muls	r7, r2
    33b2:	b2b6      	uxth	r6, r6
    33b4:	4356      	muls	r6, r2
    33b6:	17ea      	asrs	r2, r5, #31
    33b8:	19ad      	adds	r5, r5, r6
    33ba:	2600      	movs	r6, #0
    33bc:	4172      	adcs	r2, r6
    33be:	0412      	lsls	r2, r2, #16
    33c0:	18bf      	adds	r7, r7, r2
    33c2:	042e      	lsls	r6, r5, #16
    33c4:	0c2a      	lsrs	r2, r5, #16
    33c6:	1936      	adds	r6, r6, r4
    33c8:	417a      	adcs	r2, r7
    33ca:	3208      	adds	r2, #8
    33cc:	1152      	asrs	r2, r2, #5
    33ce:	d219      	bcs.n	3404 <dq_5>
    33d0:	0a9d      	lsrs	r5, r3, #10
    33d2:	059c      	lsls	r4, r3, #22
    33d4:	17d1      	asrs	r1, r2, #31
    33d6:	1910      	adds	r0, r2, r4
    33d8:	4169      	adcs	r1, r5
    33da:	4461      	add	r1, ip
    33dc:	bdf0      	pop	{r4, r5, r6, r7, pc}
    33de:	03fd0000 	mvnseq	r0, #0
    33e2:	07fe0000 	ldrbeq	r0, [lr, r0]!
    33e6:	07ff0000 	ldrbeq	r0, [pc, r0]!
	...

000033ec <drsqrtapp>:
    33ec:	d6dfebf8 			; <UNDEFINED> instruction: 0xd6dfebf8
    33f0:	b8bec5cd 	ldmlt	lr!, {r0, r2, r3, r6, r7, r8, sl, lr, pc}
    33f4:	a4a8adb2 	strtge	sl, [r8], #3506	; 0xdb2
    33f8:	95999ca0 	ldrls	r9, [r9, #3232]	; 0xca0
    33fc:	8a8d8f92 	bhi	fe36724c <IOPORT+0x2e36724c>
    3400:	81838588 	orrhi	r8, r3, r8, lsl #11

00003404 <dq_5>:
    3404:	4152      	adcs	r2, r2
    3406:	0a5d      	lsrs	r5, r3, #9
    3408:	05dc      	lsls	r4, r3, #23
    340a:	17d1      	asrs	r1, r2, #31
    340c:	1914      	adds	r4, r2, r4
    340e:	414d      	adcs	r5, r1
    3410:	002b      	movs	r3, r5
    3412:	4363      	muls	r3, r4
    3414:	b2a6      	uxth	r6, r4
    3416:	4376      	muls	r6, r6
    3418:	b2a2      	uxth	r2, r4
    341a:	0c27      	lsrs	r7, r4, #16
    341c:	437a      	muls	r2, r7
    341e:	437f      	muls	r7, r7
    3420:	0451      	lsls	r1, r2, #17
    3422:	0bd2      	lsrs	r2, r2, #15
    3424:	1989      	adds	r1, r1, r6
    3426:	417a      	adcs	r2, r7
    3428:	18d2      	adds	r2, r2, r3
    342a:	18d2      	adds	r2, r2, r3
    342c:	0580      	lsls	r0, r0, #22
    342e:	4249      	negs	r1, r1
    3430:	4190      	sbcs	r0, r2
    3432:	d402      	bmi.n	343a <dq_5+0x36>
    3434:	2300      	movs	r3, #0
    3436:	3401      	adds	r4, #1
    3438:	415d      	adcs	r5, r3
    343a:	0860      	lsrs	r0, r4, #1
    343c:	0869      	lsrs	r1, r5, #1
    343e:	07ed      	lsls	r5, r5, #31
    3440:	4328      	orrs	r0, r5
    3442:	4461      	add	r1, ip
    3444:	bdf0      	pop	{r4, r5, r6, r7, pc}

00003446 <mufp_dcmp_fast>:
    3446:	b5d0      	push	{r4, r6, r7, lr}
    3448:	e011      	b.n	346e <dcmp_fast_entry>

0000344a <mufp_dcmp_combined>:
    344a:	b5d0      	push	{r4, r6, r7, lr}
    344c:	4fb3      	ldr	r7, [pc, #716]	; (371c <uf2d+0x64>)
    344e:	004c      	lsls	r4, r1, #1
    3450:	0d64      	lsrs	r4, r4, #21
    3452:	d001      	beq.n	3458 <mufp_dcmp_combined+0xe>
    3454:	42bc      	cmp	r4, r7
    3456:	d102      	bne.n	345e <mufp_dcmp_combined+0x14>
    3458:	2000      	movs	r0, #0
    345a:	0d09      	lsrs	r1, r1, #20
    345c:	0509      	lsls	r1, r1, #20
    345e:	005c      	lsls	r4, r3, #1
    3460:	0d64      	lsrs	r4, r4, #21
    3462:	d001      	beq.n	3468 <mufp_dcmp_combined+0x1e>
    3464:	42bc      	cmp	r4, r7
    3466:	d102      	bne.n	346e <dcmp_fast_entry>
    3468:	2200      	movs	r2, #0
    346a:	0d1b      	lsrs	r3, r3, #20
    346c:	051b      	lsls	r3, r3, #20

0000346e <dcmp_fast_entry>:
    346e:	2601      	movs	r6, #1
    3470:	404b      	eors	r3, r1
    3472:	d40c      	bmi.n	348e <dcmp_fast_entry+0x20>
    3474:	404b      	eors	r3, r1
    3476:	d500      	bpl.n	347a <dcmp_fast_entry+0xc>
    3478:	4276      	negs	r6, r6
    347a:	4299      	cmp	r1, r3
    347c:	d103      	bne.n	3486 <dcmp_fast_entry+0x18>
    347e:	4290      	cmp	r0, r2
    3480:	d803      	bhi.n	348a <dcmp_fast_entry+0x1c>
    3482:	d301      	bcc.n	3488 <dcmp_fast_entry+0x1a>
    3484:	2600      	movs	r6, #0
    3486:	dc00      	bgt.n	348a <dcmp_fast_entry+0x1c>
    3488:	4276      	negs	r6, r6
    348a:	1e30      	subs	r0, r6, #0
    348c:	bdd0      	pop	{r4, r6, r7, pc}
    348e:	430b      	orrs	r3, r1
    3490:	18db      	adds	r3, r3, r3
    3492:	4303      	orrs	r3, r0
    3494:	4313      	orrs	r3, r2
    3496:	d0f5      	beq.n	3484 <dcmp_fast_entry+0x16>
    3498:	2900      	cmp	r1, #0
    349a:	daf6      	bge.n	348a <dcmp_fast_entry+0x1c>
    349c:	e7f4      	b.n	3488 <dcmp_fast_entry+0x1a>

0000349e <push_r8_r11>:
    349e:	4644      	mov	r4, r8
    34a0:	464d      	mov	r5, r9
    34a2:	4656      	mov	r6, sl
    34a4:	465f      	mov	r7, fp
    34a6:	b4f0      	push	{r4, r5, r6, r7}
    34a8:	4770      	bx	lr

000034aa <pop_r8_r11>:
    34aa:	bcf0      	pop	{r4, r5, r6, r7}
    34ac:	46a0      	mov	r8, r4
    34ae:	46a9      	mov	r9, r5
    34b0:	46b2      	mov	sl, r6
    34b2:	46bb      	mov	fp, r7
    34b4:	4770      	bx	lr

000034b6 <dcordic_vec_step>:
    34b6:	4662      	mov	r2, ip
    34b8:	ca18      	ldmia	r2!, {r3, r4}
    34ba:	4694      	mov	ip, r2
    34bc:	465a      	mov	r2, fp
    34be:	2a00      	cmp	r2, #0
    34c0:	db20      	blt.n	3504 <dcordic_rot_step+0x40>
    34c2:	e004      	b.n	34ce <dcordic_rot_step+0xa>

000034c4 <dcordic_rot_step>:
    34c4:	4662      	mov	r2, ip
    34c6:	ca18      	ldmia	r2!, {r3, r4}
    34c8:	4694      	mov	ip, r2
    34ca:	2900      	cmp	r1, #0
    34cc:	da1a      	bge.n	3504 <dcordic_rot_step+0x40>
    34ce:	18c0      	adds	r0, r0, r3
    34d0:	4161      	adcs	r1, r4
    34d2:	465b      	mov	r3, fp
    34d4:	413b      	asrs	r3, r7
    34d6:	465c      	mov	r4, fp
    34d8:	40b4      	lsls	r4, r6
    34da:	4652      	mov	r2, sl
    34dc:	40fa      	lsrs	r2, r7
    34de:	4322      	orrs	r2, r4
    34e0:	4644      	mov	r4, r8
    34e2:	464d      	mov	r5, r9
    34e4:	4162      	adcs	r2, r4
    34e6:	416b      	adcs	r3, r5
    34e8:	4690      	mov	r8, r2
    34ea:	4699      	mov	r9, r3
    34ec:	462b      	mov	r3, r5
    34ee:	40b3      	lsls	r3, r6
    34f0:	413d      	asrs	r5, r7
    34f2:	40fc      	lsrs	r4, r7
    34f4:	431c      	orrs	r4, r3
    34f6:	4652      	mov	r2, sl
    34f8:	465b      	mov	r3, fp
    34fa:	41a2      	sbcs	r2, r4
    34fc:	41ab      	sbcs	r3, r5
    34fe:	4692      	mov	sl, r2
    3500:	469b      	mov	fp, r3
    3502:	4770      	bx	lr
    3504:	1ac0      	subs	r0, r0, r3
    3506:	41a1      	sbcs	r1, r4
    3508:	464b      	mov	r3, r9
    350a:	413b      	asrs	r3, r7
    350c:	464c      	mov	r4, r9
    350e:	40b4      	lsls	r4, r6
    3510:	4642      	mov	r2, r8
    3512:	40fa      	lsrs	r2, r7
    3514:	4322      	orrs	r2, r4
    3516:	4654      	mov	r4, sl
    3518:	465d      	mov	r5, fp
    351a:	4162      	adcs	r2, r4
    351c:	416b      	adcs	r3, r5
    351e:	4692      	mov	sl, r2
    3520:	469b      	mov	fp, r3
    3522:	462b      	mov	r3, r5
    3524:	40b3      	lsls	r3, r6
    3526:	413d      	asrs	r5, r7
    3528:	40fc      	lsrs	r4, r7
    352a:	431c      	orrs	r4, r3
    352c:	4642      	mov	r2, r8
    352e:	464b      	mov	r3, r9
    3530:	41a2      	sbcs	r2, r4
    3532:	41ab      	sbcs	r3, r5
    3534:	4690      	mov	r8, r2
    3536:	4699      	mov	r9, r3
    3538:	4770      	bx	lr

0000353a <ret_dzero>:
    353a:	2000      	movs	r0, #0
    353c:	2100      	movs	r1, #0
    353e:	4770      	bx	lr

00003540 <mufp_double2int>:
    3540:	2200      	movs	r2, #0

00003542 <mufp_double2fix>:
    3542:	b500      	push	{lr}
    3544:	3220      	adds	r2, #32
    3546:	f000 f82a 	bl	359e <mufp_double2fix64>
    354a:	0008      	movs	r0, r1
    354c:	bd00      	pop	{pc}

0000354e <mufp_double2uint>:
    354e:	2200      	movs	r2, #0

00003550 <mufp_double2ufix>:
    3550:	b500      	push	{lr}
    3552:	3220      	adds	r2, #32
    3554:	f000 f830 	bl	35b8 <mufp_double2ufix64>
    3558:	0008      	movs	r0, r1
    355a:	bd00      	pop	{pc}

0000355c <mufp_float2int64>:
    355c:	2100      	movs	r1, #0

0000355e <mufp_float2fix64>:
    355e:	b500      	push	{lr}
    3560:	f000 f804 	bl	356c <f2fix>
    3564:	e01e      	b.n	35a4 <d2f64_a>

00003566 <mufp_float2uint64>:
    3566:	2100      	movs	r1, #0

00003568 <mufp_float2ufix64>:
    3568:	15c3      	asrs	r3, r0, #23
    356a:	d4e6      	bmi.n	353a <ret_dzero>

0000356c <f2fix>:
    356c:	b510      	push	{r4, lr}
    356e:	468c      	mov	ip, r1
    3570:	17c3      	asrs	r3, r0, #31
    3572:	0040      	lsls	r0, r0, #1
    3574:	0e02      	lsrs	r2, r0, #24
    3576:	d00a      	beq.n	358e <f2fix+0x22>
    3578:	2aff      	cmp	r2, #255	; 0xff
    357a:	d00c      	beq.n	3596 <f2fix+0x2a>
    357c:	1e51      	subs	r1, r2, #1
    357e:	3a7f      	subs	r2, #127	; 0x7f
    3580:	0609      	lsls	r1, r1, #24
    3582:	1a40      	subs	r0, r0, r1
    3584:	4058      	eors	r0, r3
    3586:	1ac0      	subs	r0, r0, r3
    3588:	1101      	asrs	r1, r0, #4
    358a:	0700      	lsls	r0, r0, #28
    358c:	e01f      	b.n	35ce <d2fix_a>
    358e:	2000      	movs	r0, #0
    3590:	0001      	movs	r1, r0
    3592:	0003      	movs	r3, r0
    3594:	bd10      	pop	{r4, pc}
    3596:	43d8      	mvns	r0, r3
    3598:	43d9      	mvns	r1, r3
    359a:	bd10      	pop	{r4, pc}

0000359c <mufp_double2int64>:
    359c:	2200      	movs	r2, #0

0000359e <mufp_double2fix64>:
    359e:	b500      	push	{lr}
    35a0:	f000 f80c 	bl	35bc <d2fix>

000035a4 <d2f64_a>:
    35a4:	17ca      	asrs	r2, r1, #31
    35a6:	429a      	cmp	r2, r3
    35a8:	d100      	bne.n	35ac <d2f64_a+0x8>
    35aa:	bd00      	pop	{pc}
    35ac:	43d8      	mvns	r0, r3
    35ae:	2101      	movs	r1, #1
    35b0:	07c9      	lsls	r1, r1, #31
    35b2:	4041      	eors	r1, r0
    35b4:	bd00      	pop	{pc}

000035b6 <mufp_double2uint64>:
    35b6:	2200      	movs	r2, #0

000035b8 <mufp_double2ufix64>:
    35b8:	150b      	asrs	r3, r1, #20
    35ba:	d4be      	bmi.n	353a <ret_dzero>

000035bc <d2fix>:
    35bc:	b510      	push	{r4, lr}
    35be:	4694      	mov	ip, r2
    35c0:	f000 f8b8 	bl	3734 <dunpacks>
    35c4:	1414      	asrs	r4, r2, #16
    35c6:	3401      	adds	r4, #1
    35c8:	da00      	bge.n	35cc <d2fix+0x10>
    35ca:	2100      	movs	r1, #0
    35cc:	17cb      	asrs	r3, r1, #31

000035ce <d2fix_a>:
    35ce:	4462      	add	r2, ip
    35d0:	3a34      	subs	r2, #52	; 0x34
    35d2:	d40c      	bmi.n	35ee <d2fix_a+0x20>
    35d4:	2a0c      	cmp	r2, #12
    35d6:	da07      	bge.n	35e8 <d2fix_a+0x1a>
    35d8:	0004      	movs	r4, r0
    35da:	4091      	lsls	r1, r2
    35dc:	4090      	lsls	r0, r2
    35de:	4252      	negs	r2, r2
    35e0:	3220      	adds	r2, #32
    35e2:	40d4      	lsrs	r4, r2
    35e4:	4321      	orrs	r1, r4
    35e6:	bd10      	pop	{r4, pc}
    35e8:	43d8      	mvns	r0, r3
    35ea:	43d9      	mvns	r1, r3
    35ec:	bd10      	pop	{r4, pc}
    35ee:	3220      	adds	r2, #32
    35f0:	d407      	bmi.n	3602 <d2fix_a+0x34>
    35f2:	460c      	mov	r4, r1
    35f4:	4094      	lsls	r4, r2
    35f6:	4252      	negs	r2, r2
    35f8:	3220      	adds	r2, #32
    35fa:	4111      	asrs	r1, r2
    35fc:	40d0      	lsrs	r0, r2
    35fe:	4320      	orrs	r0, r4
    3600:	bd10      	pop	{r4, pc}
    3602:	0008      	movs	r0, r1
    3604:	17c9      	asrs	r1, r1, #31
    3606:	3220      	adds	r2, #32
    3608:	d403      	bmi.n	3612 <d2fix_a+0x44>
    360a:	4252      	negs	r2, r2
    360c:	3220      	adds	r2, #32
    360e:	4110      	asrs	r0, r2
    3610:	bd10      	pop	{r4, pc}
    3612:	0018      	movs	r0, r3
    3614:	0019      	movs	r1, r3
    3616:	bd10      	pop	{r4, pc}

00003618 <mufp_float2double>:
    3618:	0fc3      	lsrs	r3, r0, #31
    361a:	07db      	lsls	r3, r3, #31
    361c:	0041      	lsls	r1, r0, #1
    361e:	0e0a      	lsrs	r2, r1, #24
    3620:	d007      	beq.n	3632 <mufp_float2double+0x1a>
    3622:	2aff      	cmp	r2, #255	; 0xff
    3624:	d008      	beq.n	3638 <mufp_float2double+0x20>
    3626:	0909      	lsrs	r1, r1, #4
    3628:	4a3d      	ldr	r2, [pc, #244]	; (3720 <uf2d+0x68>)
    362a:	1889      	adds	r1, r1, r2
    362c:	4319      	orrs	r1, r3
    362e:	0740      	lsls	r0, r0, #29
    3630:	4770      	bx	lr
    3632:	0019      	movs	r1, r3
    3634:	2000      	movs	r0, #0
    3636:	4770      	bx	lr
    3638:	493a      	ldr	r1, [pc, #232]	; (3724 <uf2d+0x6c>)
    363a:	18c9      	adds	r1, r1, r3
    363c:	e7fa      	b.n	3634 <mufp_float2double+0x1c>

0000363e <mufp_double2float>:
    363e:	004a      	lsls	r2, r1, #1
    3640:	0d52      	lsrs	r2, r2, #21
    3642:	4b39      	ldr	r3, [pc, #228]	; (3728 <uf2d+0x70>)
    3644:	1ad2      	subs	r2, r2, r3
    3646:	dd13      	ble.n	3670 <mufp_double2float+0x32>
    3648:	2aff      	cmp	r2, #255	; 0xff
    364a:	da1e      	bge.n	368a <mufp_double2float+0x4c>
    364c:	05d2      	lsls	r2, r2, #23
    364e:	0fcb      	lsrs	r3, r1, #31
    3650:	07db      	lsls	r3, r3, #31
    3652:	431a      	orrs	r2, r3
    3654:	00c3      	lsls	r3, r0, #3
    3656:	0f40      	lsrs	r0, r0, #29
    3658:	0309      	lsls	r1, r1, #12
    365a:	0a49      	lsrs	r1, r1, #9
    365c:	4308      	orrs	r0, r1
    365e:	4310      	orrs	r0, r2
    3660:	005b      	lsls	r3, r3, #1
    3662:	d301      	bcc.n	3668 <mufp_double2float+0x2a>
    3664:	d001      	beq.n	366a <mufp_double2float+0x2c>
    3666:	3001      	adds	r0, #1
    3668:	4770      	bx	lr
    366a:	0843      	lsrs	r3, r0, #1
    366c:	d2fb      	bcs.n	3666 <mufp_double2float+0x28>
    366e:	4770      	bx	lr
    3670:	d002      	beq.n	3678 <mufp_double2float+0x3a>
    3672:	0fc8      	lsrs	r0, r1, #31
    3674:	07c0      	lsls	r0, r0, #31
    3676:	4770      	bx	lr
    3678:	030a      	lsls	r2, r1, #12
    367a:	1312      	asrs	r2, r2, #12
    367c:	3201      	adds	r2, #1
    367e:	d1f8      	bne.n	3672 <mufp_double2float+0x34>
    3680:	0f42      	lsrs	r2, r0, #29
    3682:	2a07      	cmp	r2, #7
    3684:	d1f5      	bne.n	3672 <mufp_double2float+0x34>
    3686:	2201      	movs	r2, #1
    3688:	e000      	b.n	368c <mufp_double2float+0x4e>
    368a:	22ff      	movs	r2, #255	; 0xff
    368c:	0fc8      	lsrs	r0, r1, #31
    368e:	0200      	lsls	r0, r0, #8
    3690:	1880      	adds	r0, r0, r2
    3692:	05c0      	lsls	r0, r0, #23
    3694:	4770      	bx	lr

00003696 <mufp_uint2double>:
    3696:	2100      	movs	r1, #0

00003698 <mufp_ufix2double>:
    3698:	000a      	movs	r2, r1
    369a:	2100      	movs	r1, #0
    369c:	e004      	b.n	36a8 <mufp_ufix642double>

0000369e <mufp_int2double>:
    369e:	2100      	movs	r1, #0

000036a0 <mufp_fix2double>:
    36a0:	000a      	movs	r2, r1
    36a2:	17c1      	asrs	r1, r0, #31
    36a4:	e003      	b.n	36ae <mufp_fix642double>

000036a6 <mufp_uint642double>:
    36a6:	2200      	movs	r2, #0

000036a8 <mufp_ufix642double>:
    36a8:	2300      	movs	r3, #0
    36aa:	e005      	b.n	36b8 <uf2d>

000036ac <mufp_int642double>:
    36ac:	2200      	movs	r2, #0

000036ae <mufp_fix642double>:
    36ae:	17cb      	asrs	r3, r1, #31
    36b0:	4058      	eors	r0, r3
    36b2:	4059      	eors	r1, r3
    36b4:	1ac0      	subs	r0, r0, r3
    36b6:	4199      	sbcs	r1, r3

000036b8 <uf2d>:
    36b8:	b530      	push	{r4, r5, lr}
    36ba:	4c1c      	ldr	r4, [pc, #112]	; (372c <uf2d+0x74>)
    36bc:	1aa2      	subs	r2, r4, r2
    36be:	2900      	cmp	r1, #0
    36c0:	d103      	bne.n	36ca <uf2d+0x12>
    36c2:	0001      	movs	r1, r0
    36c4:	d010      	beq.n	36e8 <uf2d+0x30>
    36c6:	2000      	movs	r0, #0
    36c8:	3a20      	subs	r2, #32
    36ca:	154c      	asrs	r4, r1, #21
    36cc:	d112      	bne.n	36f4 <uf2d+0x3c>
    36ce:	d204      	bcs.n	36da <uf2d+0x22>
    36d0:	3a01      	subs	r2, #1
    36d2:	1800      	adds	r0, r0, r0
    36d4:	4149      	adcs	r1, r1
    36d6:	0d4c      	lsrs	r4, r1, #21
    36d8:	d3fa      	bcc.n	36d0 <uf2d+0x18>
    36da:	4c15      	ldr	r4, [pc, #84]	; (3730 <uf2d+0x78>)
    36dc:	42a2      	cmp	r2, r4
    36de:	d204      	bcs.n	36ea <uf2d+0x32>
    36e0:	0512      	lsls	r2, r2, #20
    36e2:	1889      	adds	r1, r1, r2
    36e4:	07db      	lsls	r3, r3, #31
    36e6:	18c9      	adds	r1, r1, r3
    36e8:	bd30      	pop	{r4, r5, pc}
    36ea:	43d2      	mvns	r2, r2
    36ec:	0d52      	lsrs	r2, r2, #21
    36ee:	2000      	movs	r0, #0
    36f0:	2100      	movs	r1, #0
    36f2:	e7f5      	b.n	36e0 <uf2d+0x28>
    36f4:	d403      	bmi.n	36fe <uf2d+0x46>
    36f6:	3a01      	subs	r2, #1
    36f8:	1800      	adds	r0, r0, r0
    36fa:	4149      	adcs	r1, r1
    36fc:	d5fb      	bpl.n	36f6 <uf2d+0x3e>
    36fe:	320b      	adds	r2, #11
    3700:	0544      	lsls	r4, r0, #21
    3702:	0ac0      	lsrs	r0, r0, #11
    3704:	054d      	lsls	r5, r1, #21
    3706:	4328      	orrs	r0, r5
    3708:	0ac9      	lsrs	r1, r1, #11
    370a:	0064      	lsls	r4, r4, #1
    370c:	d003      	beq.n	3716 <uf2d+0x5e>
    370e:	2400      	movs	r4, #0
    3710:	4160      	adcs	r0, r4
    3712:	4161      	adcs	r1, r4
    3714:	e7e1      	b.n	36da <uf2d+0x22>
    3716:	d3e0      	bcc.n	36da <uf2d+0x22>
    3718:	0844      	lsrs	r4, r0, #1
    371a:	e7f8      	b.n	370e <uf2d+0x56>
    371c:	000007ff 	strdeq	r0, [r0], -pc	; <UNPREDICTABLE>
    3720:	38000000 	stmdacc	r0, {}	; <UNPREDICTABLE>
    3724:	7ff00000 	svcvc	0x00f00000	; IMB
    3728:	00000380 	andeq	r0, r0, r0, lsl #7
    372c:	00000432 	andeq	r0, r0, r2, lsr r4
    3730:	000007fe 	strdeq	r0, [r0], -lr

00003734 <dunpacks>:
    3734:	0d0a      	lsrs	r2, r1, #20
    3736:	0fcc      	lsrs	r4, r1, #31
    3738:	1e53      	subs	r3, r2, #1
    373a:	051b      	lsls	r3, r3, #20
    373c:	1ac9      	subs	r1, r1, r3
    373e:	0552      	lsls	r2, r2, #21
    3740:	d303      	bcc.n	374a <l18_1>
    3742:	43c9      	mvns	r1, r1
    3744:	4240      	negs	r0, r0
    3746:	d300      	bcc.n	374a <l18_1>
    3748:	3101      	adds	r1, #1

0000374a <l18_1>:
    374a:	0d52      	lsrs	r2, r2, #21
    374c:	d003      	beq.n	3756 <l18_2>
    374e:	1c53      	adds	r3, r2, #1
    3750:	0adb      	lsrs	r3, r3, #11
    3752:	d007      	beq.n	3764 <l18_3>
    3754:	1b12      	subs	r2, r2, r4

00003756 <l18_2>:
    3756:	2000      	movs	r0, #0
    3758:	0064      	lsls	r4, r4, #1
    375a:	1c61      	adds	r1, r4, #1
    375c:	0789      	lsls	r1, r1, #30
    375e:	1289      	asrs	r1, r1, #10
    3760:	3a80      	subs	r2, #128	; 0x80
    3762:	0312      	lsls	r2, r2, #12

00003764 <l18_3>:
    3764:	4b69      	ldr	r3, [pc, #420]	; (390c <l20_1+0x20>)
    3766:	1ad2      	subs	r2, r2, r3
    3768:	4770      	bx	lr

0000376a <dreduce>:
    376a:	3202      	adds	r2, #2
    376c:	d425      	bmi.n	37ba <dreduce+0x50>
    376e:	2a0c      	cmp	r2, #12
    3770:	da1c      	bge.n	37ac <dreduce+0x42>
    3772:	2511      	movs	r5, #17
    3774:	1aad      	subs	r5, r5, r2
    3776:	000b      	movs	r3, r1
    3778:	412b      	asrs	r3, r5
    377a:	3208      	adds	r2, #8
    377c:	3507      	adds	r5, #7
    377e:	0006      	movs	r6, r0
    3780:	40ee      	lsrs	r6, r5
    3782:	4090      	lsls	r0, r2
    3784:	4091      	lsls	r1, r2
    3786:	4331      	orrs	r1, r6
    3788:	ccf0      	ldmia	r4, {r4, r5, r6, r7}
    378a:	4363      	muls	r3, r4
    378c:	151a      	asrs	r2, r3, #20
    378e:	2300      	movs	r3, #0
    3790:	415a      	adcs	r2, r3
    3792:	4355      	muls	r5, r2
    3794:	4356      	muls	r6, r2
    3796:	4357      	muls	r7, r2
    3798:	02bf      	lsls	r7, r7, #10
    379a:	12f4      	asrs	r4, r6, #11
    379c:	0576      	lsls	r6, r6, #21
    379e:	1976      	adds	r6, r6, r5
    37a0:	4167      	adcs	r7, r4
    37a2:	17ed      	asrs	r5, r5, #31
    37a4:	197f      	adds	r7, r7, r5
    37a6:	1b80      	subs	r0, r0, r6
    37a8:	41b9      	sbcs	r1, r7
    37aa:	4770      	bx	lr
    37ac:	220c      	movs	r2, #12
    37ae:	2000      	movs	r0, #0
    37b0:	17c9      	asrs	r1, r1, #31
    37b2:	0049      	lsls	r1, r1, #1
    37b4:	3101      	adds	r1, #1
    37b6:	0509      	lsls	r1, r1, #20
    37b8:	e7db      	b.n	3772 <dreduce+0x8>
    37ba:	0209      	lsls	r1, r1, #8
    37bc:	0e03      	lsrs	r3, r0, #24
    37be:	4319      	orrs	r1, r3
    37c0:	0200      	lsls	r0, r0, #8
    37c2:	4253      	negs	r3, r2
    37c4:	3220      	adds	r2, #32
    37c6:	d408      	bmi.n	37da <dreduce+0x70>
    37c8:	000c      	movs	r4, r1
    37ca:	4119      	asrs	r1, r3
    37cc:	4094      	lsls	r4, r2
    37ce:	40d8      	lsrs	r0, r3
    37d0:	4320      	orrs	r0, r4
    37d2:	2200      	movs	r2, #0
    37d4:	4150      	adcs	r0, r2
    37d6:	4151      	adcs	r1, r2
    37d8:	4770      	bx	lr
    37da:	0008      	movs	r0, r1
    37dc:	17c9      	asrs	r1, r1, #31
    37de:	3b20      	subs	r3, #32
    37e0:	3220      	adds	r2, #32
    37e2:	d5f1      	bpl.n	37c8 <dreduce+0x5e>
    37e4:	2000      	movs	r0, #0
    37e6:	2100      	movs	r1, #0
    37e8:	2200      	movs	r2, #0
    37ea:	4770      	bx	lr

000037ec <mufp_dtan>:
    37ec:	b5f0      	push	{r4, r5, r6, r7, lr}
    37ee:	f7ff fe56 	bl	349e <push_r8_r11>
    37f2:	f000 f82b 	bl	384c <dsincos>
    37f6:	4684      	mov	ip, r0
    37f8:	f000 f84c 	bl	3894 <dcos_finish>
    37fc:	b403      	push	{r0, r1}
    37fe:	4660      	mov	r0, ip
    3800:	f000 f866 	bl	38d0 <dsin_finish>
    3804:	bc0c      	pop	{r2, r3}
    3806:	f7ff fe50 	bl	34aa <pop_r8_r11>
    380a:	e474      	b.n	30f6 <ddiv0>

0000380c <mufp_dcos>:
    380c:	b5f0      	push	{r4, r5, r6, r7, lr}
    380e:	f7ff fe46 	bl	349e <push_r8_r11>
    3812:	f000 f81b 	bl	384c <dsincos>
    3816:	f000 f83d 	bl	3894 <dcos_finish>
    381a:	e006      	b.n	382a <mufp_dsin+0xe>

0000381c <mufp_dsin>:
    381c:	b5f0      	push	{r4, r5, r6, r7, lr}
    381e:	f7ff fe3e 	bl	349e <push_r8_r11>
    3822:	f000 f813 	bl	384c <dsincos>
    3826:	f000 f853 	bl	38d0 <dsin_finish>
    382a:	f7ff fe3e 	bl	34aa <pop_r8_r11>
    382e:	bdf0      	pop	{r4, r5, r6, r7, pc}

00003830 <mufp_dsincos>:
    3830:	b5f0      	push	{r4, r5, r6, r7, lr}
    3832:	f7ff fe34 	bl	349e <push_r8_r11>
    3836:	f000 f809 	bl	384c <dsincos>
    383a:	4684      	mov	ip, r0
    383c:	f000 f82a 	bl	3894 <dcos_finish>
    3840:	b403      	push	{r0, r1}
    3842:	4660      	mov	r0, ip
    3844:	f000 f844 	bl	38d0 <dsin_finish>
    3848:	bc0c      	pop	{r2, r3}
    384a:	e7ee      	b.n	382a <mufp_dsin+0xe>

0000384c <dsincos>:
    384c:	b500      	push	{lr}
    384e:	f7ff ff71 	bl	3734 <dunpacks>
    3852:	a431      	add	r4, pc, #196	; (adr r4, 3918 <dreddata0>)
    3854:	f7ff ff89 	bl	376a <dreduce>
    3858:	2400      	movs	r4, #0
    385a:	4d2d      	ldr	r5, [pc, #180]	; (3910 <l20_1+0x24>)
    385c:	4e2d      	ldr	r6, [pc, #180]	; (3914 <l20_1+0x28>)
    385e:	07d2      	lsls	r2, r2, #31
    3860:	d302      	bcc.n	3868 <dsincos+0x1c>
    3862:	43f6      	mvns	r6, r6
    3864:	426d      	negs	r5, r5
    3866:	4166      	adcs	r6, r4
    3868:	0052      	lsls	r2, r2, #1
    386a:	d204      	bcs.n	3876 <dsincos+0x2a>
    386c:	46a2      	mov	sl, r4
    386e:	46a3      	mov	fp, r4
    3870:	46a8      	mov	r8, r5
    3872:	46b1      	mov	r9, r6
    3874:	e003      	b.n	387e <dsincos+0x32>
    3876:	46a0      	mov	r8, r4
    3878:	46a1      	mov	r9, r4
    387a:	46aa      	mov	sl, r5
    387c:	46b3      	mov	fp, r6
    387e:	a46f      	add	r4, pc, #444	; (adr r4, 3a3c <dtab_cc>)
    3880:	46a4      	mov	ip, r4
    3882:	2701      	movs	r7, #1
    3884:	261f      	movs	r6, #31
    3886:	f7ff fe1d 	bl	34c4 <dcordic_rot_step>
    388a:	3701      	adds	r7, #1
    388c:	3e01      	subs	r6, #1
    388e:	2f21      	cmp	r7, #33	; 0x21
    3890:	d1f9      	bne.n	3886 <dsincos+0x3a>
    3892:	bd00      	pop	{pc}

00003894 <dcos_finish>:
    3894:	4659      	mov	r1, fp
    3896:	b284      	uxth	r4, r0
    3898:	b28d      	uxth	r5, r1
    389a:	436c      	muls	r4, r5
    389c:	1406      	asrs	r6, r0, #16
    389e:	4375      	muls	r5, r6
    38a0:	140b      	asrs	r3, r1, #16
    38a2:	435e      	muls	r6, r3
    38a4:	b282      	uxth	r2, r0
    38a6:	435a      	muls	r2, r3
    38a8:	18ad      	adds	r5, r5, r2
    38aa:	17ea      	asrs	r2, r5, #31
    38ac:	d700      	bvc.n	38b0 <l19_1>
    38ae:	43d2      	mvns	r2, r2

000038b0 <l19_1>:
    38b0:	0412      	lsls	r2, r2, #16
    38b2:	18b6      	adds	r6, r6, r2
    38b4:	042a      	lsls	r2, r5, #16
    38b6:	0c2b      	lsrs	r3, r5, #16
    38b8:	1912      	adds	r2, r2, r4
    38ba:	4173      	adcs	r3, r6
    38bc:	4640      	mov	r0, r8
    38be:	4649      	mov	r1, r9
    38c0:	009d      	lsls	r5, r3, #2
    38c2:	179b      	asrs	r3, r3, #30
    38c4:	0f92      	lsrs	r2, r2, #30
    38c6:	432a      	orrs	r2, r5
    38c8:	4190      	sbcs	r0, r2
    38ca:	4199      	sbcs	r1, r3
    38cc:	223e      	movs	r2, #62	; 0x3e
    38ce:	e6ee      	b.n	36ae <mufp_fix642double>

000038d0 <dsin_finish>:
    38d0:	4649      	mov	r1, r9
    38d2:	b284      	uxth	r4, r0
    38d4:	b28d      	uxth	r5, r1
    38d6:	436c      	muls	r4, r5
    38d8:	1406      	asrs	r6, r0, #16
    38da:	4375      	muls	r5, r6
    38dc:	140b      	asrs	r3, r1, #16
    38de:	435e      	muls	r6, r3
    38e0:	b282      	uxth	r2, r0
    38e2:	435a      	muls	r2, r3
    38e4:	18ad      	adds	r5, r5, r2
    38e6:	17ea      	asrs	r2, r5, #31
    38e8:	d700      	bvc.n	38ec <l20_1>
    38ea:	43d2      	mvns	r2, r2

000038ec <l20_1>:
    38ec:	0412      	lsls	r2, r2, #16
    38ee:	18b6      	adds	r6, r6, r2
    38f0:	042a      	lsls	r2, r5, #16
    38f2:	0c2b      	lsrs	r3, r5, #16
    38f4:	1912      	adds	r2, r2, r4
    38f6:	4173      	adcs	r3, r6
    38f8:	4650      	mov	r0, sl
    38fa:	4659      	mov	r1, fp
    38fc:	009d      	lsls	r5, r3, #2
    38fe:	179b      	asrs	r3, r3, #30
    3900:	0f92      	lsrs	r2, r2, #30
    3902:	432a      	orrs	r2, r5
    3904:	4150      	adcs	r0, r2
    3906:	4159      	adcs	r1, r3
    3908:	223e      	movs	r2, #62	; 0x3e
    390a:	e6d0      	b.n	36ae <mufp_fix642double>
    390c:	000003ff 	strdeq	r0, [r0], -pc	; <UNPREDICTABLE>
    3910:	9df04dbb 	ldclls	13, cr4, [r0, #748]!	; 0x2ec
    3914:	36f656c5 	ldrbtcc	r5, [r6], r5, asr #13

00003918 <dreddata0>:
    3918:	0000517d 	andeq	r5, r0, sp, ror r1
    391c:	0014611a 	andseq	r6, r4, sl, lsl r1
    3920:	000a8885 	andeq	r8, sl, r5, lsl #17
    3924:	001921fb 			; <UNDEFINED> instruction: 0x001921fb

00003928 <mufp_datan2>:
    3928:	b5f0      	push	{r4, r5, r6, r7, lr}
    392a:	f7ff fdb8 	bl	349e <push_r8_r11>
    392e:	4d40      	ldr	r5, [pc, #256]	; (3a30 <mufp_datan2+0x108>)
    3930:	000c      	movs	r4, r1
    3932:	402c      	ands	r4, r5
    3934:	d001      	beq.n	393a <mufp_datan2+0x12>
    3936:	42ac      	cmp	r4, r5
    3938:	d102      	bne.n	3940 <mufp_datan2+0x18>
    393a:	0d09      	lsrs	r1, r1, #20
    393c:	0509      	lsls	r1, r1, #20
    393e:	2000      	movs	r0, #0
    3940:	001c      	movs	r4, r3
    3942:	402c      	ands	r4, r5
    3944:	d001      	beq.n	394a <mufp_datan2+0x22>
    3946:	42ac      	cmp	r4, r5
    3948:	d102      	bne.n	3950 <mufp_datan2+0x28>
    394a:	0d1b      	lsrs	r3, r3, #20
    394c:	051b      	lsls	r3, r3, #20
    394e:	2200      	movs	r2, #0
    3950:	2600      	movs	r6, #0
    3952:	02ed      	lsls	r5, r5, #11
    3954:	2b00      	cmp	r3, #0
    3956:	d504      	bpl.n	3962 <mufp_datan2+0x3a>
    3958:	2602      	movs	r6, #2
    395a:	406b      	eors	r3, r5
    395c:	4069      	eors	r1, r5
    395e:	d400      	bmi.n	3962 <mufp_datan2+0x3a>
    3960:	4276      	negs	r6, r6
    3962:	194f      	adds	r7, r1, r5
    3964:	d504      	bpl.n	3970 <mufp_datan2+0x48>
    3966:	4299      	cmp	r1, r3
    3968:	dd0c      	ble.n	3984 <mufp_datan2+0x5c>
    396a:	3601      	adds	r6, #1
    396c:	4069      	eors	r1, r5
    396e:	e003      	b.n	3978 <mufp_datan2+0x50>
    3970:	42bb      	cmp	r3, r7
    3972:	da07      	bge.n	3984 <mufp_datan2+0x5c>
    3974:	3e01      	subs	r6, #1
    3976:	406b      	eors	r3, r5
    3978:	0007      	movs	r7, r0
    397a:	0010      	movs	r0, r2
    397c:	003a      	movs	r2, r7
    397e:	000f      	movs	r7, r1
    3980:	0019      	movs	r1, r3
    3982:	003b      	movs	r3, r7
    3984:	b440      	push	{r6}
    3986:	2a00      	cmp	r2, #0
    3988:	d10f      	bne.n	39aa <mufp_datan2+0x82>
    398a:	2b00      	cmp	r3, #0
    398c:	d00a      	beq.n	39a4 <mufp_datan2+0x7c>
    398e:	005c      	lsls	r4, r3, #1
    3990:	1564      	asrs	r4, r4, #21
    3992:	3401      	adds	r4, #1
    3994:	d109      	bne.n	39aa <mufp_datan2+0x82>
    3996:	004c      	lsls	r4, r1, #1
    3998:	1564      	asrs	r4, r4, #21
    399a:	3401      	adds	r4, #1
    399c:	d102      	bne.n	39a4 <mufp_datan2+0x7c>
    399e:	3901      	subs	r1, #1
    39a0:	3b01      	subs	r3, #1
    39a2:	e002      	b.n	39aa <mufp_datan2+0x82>
    39a4:	2000      	movs	r0, #0
    39a6:	2100      	movs	r1, #0
    39a8:	e02e      	b.n	3a08 <mufp_datan2+0xe0>
    39aa:	f7ff fba3 	bl	30f4 <mufp_ddiv>
    39ae:	223e      	movs	r2, #62	; 0x3e
    39b0:	f7ff fdf5 	bl	359e <mufp_double2fix64>
    39b4:	4682      	mov	sl, r0
    39b6:	468b      	mov	fp, r1
    39b8:	2000      	movs	r0, #0
    39ba:	2100      	movs	r1, #0
    39bc:	4680      	mov	r8, r0
    39be:	2201      	movs	r2, #1
    39c0:	0792      	lsls	r2, r2, #30
    39c2:	4691      	mov	r9, r2
    39c4:	a41d      	add	r4, pc, #116	; (adr r4, 3a3c <dtab_cc>)
    39c6:	46a4      	mov	ip, r4
    39c8:	2701      	movs	r7, #1
    39ca:	261f      	movs	r6, #31
    39cc:	f7ff fd73 	bl	34b6 <dcordic_vec_step>
    39d0:	3701      	adds	r7, #1
    39d2:	3e01      	subs	r6, #1
    39d4:	2f21      	cmp	r7, #33	; 0x21
    39d6:	d1f9      	bne.n	39cc <mufp_datan2+0xa4>
    39d8:	464a      	mov	r2, r9
    39da:	4653      	mov	r3, sl
    39dc:	3a0c      	subs	r2, #12
    39de:	2401      	movs	r4, #1
    39e0:	0764      	lsls	r4, r4, #29
    39e2:	2700      	movs	r7, #0
    39e4:	0852      	lsrs	r2, r2, #1
    39e6:	001b      	movs	r3, r3
    39e8:	d405      	bmi.n	39f6 <mufp_datan2+0xce>
    39ea:	4193      	sbcs	r3, r2
    39ec:	1900      	adds	r0, r0, r4
    39ee:	4179      	adcs	r1, r7
    39f0:	0864      	lsrs	r4, r4, #1
    39f2:	d1f7      	bne.n	39e4 <mufp_datan2+0xbc>
    39f4:	e004      	b.n	3a00 <mufp_datan2+0xd8>
    39f6:	4153      	adcs	r3, r2
    39f8:	1b00      	subs	r0, r0, r4
    39fa:	41b9      	sbcs	r1, r7
    39fc:	0864      	lsrs	r4, r4, #1
    39fe:	d1f1      	bne.n	39e4 <mufp_datan2+0xbc>
    3a00:	07ce      	lsls	r6, r1, #31
    3a02:	1049      	asrs	r1, r1, #1
    3a04:	0840      	lsrs	r0, r0, #1
    3a06:	4330      	orrs	r0, r6
    3a08:	bc40      	pop	{r6}
    3a0a:	2e00      	cmp	r6, #0
    3a0c:	d00a      	beq.n	3a24 <mufp_datan2+0xfc>
    3a0e:	4c09      	ldr	r4, [pc, #36]	; (3a34 <mufp_datan2+0x10c>)
    3a10:	4d09      	ldr	r5, [pc, #36]	; (3a38 <mufp_datan2+0x110>)
    3a12:	d501      	bpl.n	3a18 <mufp_datan2+0xf0>
    3a14:	43e4      	mvns	r4, r4
    3a16:	43ed      	mvns	r5, r5
    3a18:	07f6      	lsls	r6, r6, #31
    3a1a:	d101      	bne.n	3a20 <mufp_datan2+0xf8>
    3a1c:	1900      	adds	r0, r0, r4
    3a1e:	4169      	adcs	r1, r5
    3a20:	1900      	adds	r0, r0, r4
    3a22:	4169      	adcs	r1, r5
    3a24:	223d      	movs	r2, #61	; 0x3d
    3a26:	f7ff fe42 	bl	36ae <mufp_fix642double>
    3a2a:	f7ff fd3e 	bl	34aa <pop_r8_r11>
    3a2e:	bdf0      	pop	{r4, r5, r6, r7, pc}
    3a30:	7ff00000 	svcvc	0x00f00000	; IMB
    3a34:	885a308d 	ldmdahi	sl, {r0, r2, r3, r7, ip, sp}^
    3a38:	3243f6a8 	subcc	pc, r3, #168, 12	; 0xa800000

00003a3c <dtab_cc>:
    3a3c:	61bb4f69 			; <UNDEFINED> instruction: 0x61bb4f69
    3a40:	1dac6705 	stcne	7, cr6, [ip, #20]!
    3a44:	96406eb1 			; <UNDEFINED> instruction: 0x96406eb1
    3a48:	0fadbafc 	svceq	0x00adbafc
    3a4c:	ab0bdb72 	blge	2fa81c <platform.c.c204d31d+0x2ee38a>
    3a50:	07f56ea6 	ldrbeq	r6, [r5, r6, lsr #29]!
    3a54:	e59fbd39 	ldr	fp, [pc, #3385]	; 4795 <this_is_the_end_my_only_friend_the_end+0x79f>
    3a58:	03feab76 	mvnseq	sl, #120832	; 0x1d800
    3a5c:	ba97624b 	blt	fe5dc390 <IOPORT+0x2e5dc390>
    3a60:	01ffd55b 	mvnseq	sp, fp, asr r5
    3a64:	dddb94d6 	cfldrdle	mvd9, [fp, #856]	; 0x358
    3a68:	00fffaaa 	rscseq	pc, pc, sl, lsr #21
    3a6c:	56eeea5d 	usatpl	lr, #14, sp, asr #20
    3a70:	007fff55 	rsbseq	pc, pc, r5, asr pc	; <UNPREDICTABLE>
    3a74:	aab7776e 	bge	fede1834 <IOPORT+0x2ede1834>
    3a78:	003fffea 	eorseq	pc, pc, sl, ror #31
    3a7c:	5555bbbc 	ldrbpl	fp, [r5, #-3004]	; 0xfffff444
    3a80:	001ffffd 			; <UNDEFINED> instruction: 0x001ffffd
    3a84:	aaaaadde 	bge	feaaf204 <IOPORT+0x2eaaf204>
    3a88:	000fffff 	strdeq	pc, [pc], -pc	; <UNPREDICTABLE>
    3a8c:	f555556f 			; <UNDEFINED> instruction: 0xf555556f
    3a90:	0007ffff 	strdeq	pc, [r7], -pc	; <UNPREDICTABLE>
    3a94:	feaaaaab 			; <UNDEFINED> instruction: 0xfeaaaaab
    3a98:	0003ffff 	strdeq	pc, [r3], -pc	; <UNPREDICTABLE>
    3a9c:	ffd55555 			; <UNDEFINED> instruction: 0xffd55555
    3aa0:	0001ffff 	strdeq	pc, [r1], -pc	; <UNPREDICTABLE>
    3aa4:	fffaaaab 			; <UNDEFINED> instruction: 0xfffaaaab
    3aa8:	0000ffff 	strdeq	pc, [r0], -pc	; <UNPREDICTABLE>
    3aac:	ffff5555 			; <UNDEFINED> instruction: 0xffff5555
    3ab0:	00007fff 	strdeq	r7, [r0], -pc	; <UNPREDICTABLE>
    3ab4:	ffffeaab 			; <UNDEFINED> instruction: 0xffffeaab
    3ab8:	00003fff 	strdeq	r3, [r0], -pc	; <UNPREDICTABLE>
    3abc:	fffffd55 			; <UNDEFINED> instruction: 0xfffffd55
    3ac0:	00001fff 	strdeq	r1, [r0], -pc	; <UNPREDICTABLE>
    3ac4:	ffffffab 			; <UNDEFINED> instruction: 0xffffffab
    3ac8:	00000fff 	strdeq	r0, [r0], -pc	; <UNPREDICTABLE>
    3acc:	fffffff5 			; <UNDEFINED> instruction: 0xfffffff5
    3ad0:	000007ff 	strdeq	r0, [r0], -pc	; <UNPREDICTABLE>
    3ad4:	ffffffff 			; <UNDEFINED> instruction: 0xffffffff
    3ad8:	000003ff 	strdeq	r0, [r0], -pc	; <UNPREDICTABLE>
    3adc:	00000000 	andeq	r0, r0, r0
    3ae0:	00000200 	andeq	r0, r0, r0, lsl #4
    3ae4:	00000000 	andeq	r0, r0, r0
    3ae8:	00000100 	andeq	r0, r0, r0, lsl #2
    3aec:	00000000 	andeq	r0, r0, r0
    3af0:	00000080 	andeq	r0, r0, r0, lsl #1
    3af4:	00000000 	andeq	r0, r0, r0
    3af8:	00000040 	andeq	r0, r0, r0, asr #32
    3afc:	00000000 	andeq	r0, r0, r0
    3b00:	00000020 	andeq	r0, r0, r0, lsr #32
    3b04:	00000000 	andeq	r0, r0, r0
    3b08:	00000010 	andeq	r0, r0, r0, lsl r0
    3b0c:	00000000 	andeq	r0, r0, r0
    3b10:	00000008 	andeq	r0, r0, r8
    3b14:	00000000 	andeq	r0, r0, r0
    3b18:	00000004 	andeq	r0, r0, r4
    3b1c:	00000000 	andeq	r0, r0, r0
    3b20:	00000002 	andeq	r0, r0, r2
    3b24:	00000000 	andeq	r0, r0, r0
    3b28:	00000001 	andeq	r0, r0, r1
    3b2c:	80000000 	andhi	r0, r0, r0
    3b30:	00000000 	andeq	r0, r0, r0
    3b34:	40000000 	andmi	r0, r0, r0
    3b38:	00000000 	andeq	r0, r0, r0

00003b3c <mufp_dexp>:
    3b3c:	b5f0      	push	{r4, r5, r6, r7, lr}
    3b3e:	f7ff fdf9 	bl	3734 <dunpacks>
    3b42:	a454      	add	r4, pc, #336	; (adr r4, 3c94 <dreddata1>)
    3b44:	f7ff fe11 	bl	376a <dreduce>
    3b48:	2900      	cmp	r1, #0
    3b4a:	da04      	bge.n	3b56 <mufp_dexp+0x1a>
    3b4c:	4c20      	ldr	r4, [pc, #128]	; (3bd0 <mufp_dexp+0x94>)
    3b4e:	4d21      	ldr	r5, [pc, #132]	; (3bd4 <mufp_dexp+0x98>)
    3b50:	1900      	adds	r0, r0, r4
    3b52:	4169      	adcs	r1, r5
    3b54:	3a01      	subs	r2, #1
    3b56:	b404      	push	{r2}
    3b58:	2701      	movs	r7, #1
    3b5a:	a652      	add	r6, pc, #328	; (adr r6, 3ca4 <dtab_exp>)
    3b5c:	2200      	movs	r2, #0
    3b5e:	2301      	movs	r3, #1
    3b60:	079b      	lsls	r3, r3, #30
    3b62:	ce30      	ldmia	r6!, {r4, r5}
    3b64:	46b4      	mov	ip, r6
    3b66:	1b00      	subs	r0, r0, r4
    3b68:	41a9      	sbcs	r1, r5
    3b6a:	d40b      	bmi.n	3b84 <mufp_dexp+0x48>
    3b6c:	427e      	negs	r6, r7
    3b6e:	3620      	adds	r6, #32
    3b70:	001d      	movs	r5, r3
    3b72:	413d      	asrs	r5, r7
    3b74:	001c      	movs	r4, r3
    3b76:	40b4      	lsls	r4, r6
    3b78:	0016      	movs	r6, r2
    3b7a:	40fe      	lsrs	r6, r7
    3b7c:	4334      	orrs	r4, r6
    3b7e:	4162      	adcs	r2, r4
    3b80:	416b      	adcs	r3, r5
    3b82:	e001      	b.n	3b88 <mufp_dexp+0x4c>
    3b84:	1900      	adds	r0, r0, r4
    3b86:	4169      	adcs	r1, r5
    3b88:	4666      	mov	r6, ip
    3b8a:	3701      	adds	r7, #1
    3b8c:	2f21      	cmp	r7, #33	; 0x21
    3b8e:	d1e8      	bne.n	3b62 <mufp_dexp+0x26>
    3b90:	b285      	uxth	r5, r0
    3b92:	b29e      	uxth	r6, r3
    3b94:	4375      	muls	r5, r6
    3b96:	1407      	asrs	r7, r0, #16
    3b98:	437e      	muls	r6, r7
    3b9a:	0c19      	lsrs	r1, r3, #16
    3b9c:	434f      	muls	r7, r1
    3b9e:	b284      	uxth	r4, r0
    3ba0:	434c      	muls	r4, r1
    3ba2:	17f1      	asrs	r1, r6, #31
    3ba4:	1936      	adds	r6, r6, r4
    3ba6:	2400      	movs	r4, #0
    3ba8:	4161      	adcs	r1, r4
    3baa:	0409      	lsls	r1, r1, #16
    3bac:	187f      	adds	r7, r7, r1
    3bae:	0434      	lsls	r4, r6, #16
    3bb0:	0c31      	lsrs	r1, r6, #16
    3bb2:	1964      	adds	r4, r4, r5
    3bb4:	4179      	adcs	r1, r7
    3bb6:	0fa4      	lsrs	r4, r4, #30
    3bb8:	0088      	lsls	r0, r1, #2
    3bba:	4320      	orrs	r0, r4
    3bbc:	1789      	asrs	r1, r1, #30
    3bbe:	1880      	adds	r0, r0, r2
    3bc0:	4159      	adcs	r1, r3
    3bc2:	bc04      	pop	{r2}
    3bc4:	4252      	negs	r2, r2
    3bc6:	323e      	adds	r2, #62	; 0x3e
    3bc8:	f7ff fd71 	bl	36ae <mufp_fix642double>
    3bcc:	bdf0      	pop	{r4, r5, r6, r7, pc}
    3bce:	de6b0000 	cdple	0, 6, cr0, cr11, cr0, {0}
    3bd2:	85fdf473 	ldrbhi	pc, [sp, #1139]!	; 0x473	; <UNPREDICTABLE>
    3bd6:	 	ldrblt	r2, [r0, #3164]!	; 0xc5c

00003bd8 <mufp_dln>:
    3bd8:	b5f0      	push	{r4, r5, r6, r7, lr}
    3bda:	004f      	lsls	r7, r1, #1
    3bdc:	d250      	bcs.n	3c80 <mufp_dln+0xa8>
    3bde:	157f      	asrs	r7, r7, #21
    3be0:	d04e      	beq.n	3c80 <mufp_dln+0xa8>
    3be2:	3701      	adds	r7, #1
    3be4:	d04f      	beq.n	3c86 <mufp_dln+0xae>
    3be6:	f7ff fda5 	bl	3734 <dunpacks>
    3bea:	b404      	push	{r2}
    3bec:	0249      	lsls	r1, r1, #9
    3bee:	0dc2      	lsrs	r2, r0, #23
    3bf0:	4311      	orrs	r1, r2
    3bf2:	0240      	lsls	r0, r0, #9
    3bf4:	2701      	movs	r7, #1
    3bf6:	a62b      	add	r6, pc, #172	; (adr r6, 3ca4 <dtab_exp>)
    3bf8:	46b4      	mov	ip, r6
    3bfa:	2200      	movs	r2, #0
    3bfc:	2300      	movs	r3, #0
    3bfe:	427e      	negs	r6, r7
    3c00:	3620      	adds	r6, #32
    3c02:	000d      	movs	r5, r1
    3c04:	413d      	asrs	r5, r7
    3c06:	000c      	movs	r4, r1
    3c08:	40b4      	lsls	r4, r6
    3c0a:	0006      	movs	r6, r0
    3c0c:	40fe      	lsrs	r6, r7
    3c0e:	4334      	orrs	r4, r6
    3c10:	4144      	adcs	r4, r0
    3c12:	414d      	adcs	r5, r1
    3c14:	0fae      	lsrs	r6, r5, #30
    3c16:	d105      	bne.n	3c24 <mufp_dln+0x4c>
    3c18:	0020      	movs	r0, r4
    3c1a:	0029      	movs	r1, r5
    3c1c:	4666      	mov	r6, ip
    3c1e:	ce30      	ldmia	r6!, {r4, r5}
    3c20:	1b12      	subs	r2, r2, r4
    3c22:	41ab      	sbcs	r3, r5
    3c24:	2408      	movs	r4, #8
    3c26:	44a4      	add	ip, r4
    3c28:	3701      	adds	r7, #1
    3c2a:	2f21      	cmp	r7, #33	; 0x21
    3c2c:	d1e7      	bne.n	3bfe <mufp_dln+0x26>
    3c2e:	0089      	lsls	r1, r1, #2
    3c30:	1089      	asrs	r1, r1, #2
    3c32:	1812      	adds	r2, r2, r0
    3c34:	414b      	adcs	r3, r1
    3c36:	bc80      	pop	{r7}
    3c38:	a417      	add	r4, pc, #92	; (adr r4, 3c98 <dreddata1+0x4>)
    3c3a:	cc13      	ldmia	r4, {r0, r1, r4}
    3c3c:	3701      	adds	r7, #1
    3c3e:	4378      	muls	r0, r7
    3c40:	4379      	muls	r1, r7
    3c42:	437c      	muls	r4, r7
    3c44:	054f      	lsls	r7, r1, #21
    3c46:	12c9      	asrs	r1, r1, #11
    3c48:	17cd      	asrs	r5, r1, #31
    3c4a:	19c0      	adds	r0, r0, r7
    3c4c:	4169      	adcs	r1, r5
    3c4e:	02a7      	lsls	r7, r4, #10
    3c50:	15a4      	asrs	r4, r4, #22
    3c52:	17cd      	asrs	r5, r1, #31
    3c54:	19c9      	adds	r1, r1, r7
    3c56:	416c      	adcs	r4, r5
    3c58:	17dd      	asrs	r5, r3, #31
    3c5a:	1880      	adds	r0, r0, r2
    3c5c:	4159      	adcs	r1, r3
    3c5e:	416c      	adcs	r4, r5
    3c60:	223e      	movs	r2, #62	; 0x3e
    3c62:	17cd      	asrs	r5, r1, #31
    3c64:	42ac      	cmp	r4, r5
    3c66:	d008      	beq.n	3c7a <mufp_dln+0xa2>
    3c68:	0900      	lsrs	r0, r0, #4
    3c6a:	070e      	lsls	r6, r1, #28
    3c6c:	4330      	orrs	r0, r6
    3c6e:	0909      	lsrs	r1, r1, #4
    3c70:	0726      	lsls	r6, r4, #28
    3c72:	4331      	orrs	r1, r6
    3c74:	1124      	asrs	r4, r4, #4
    3c76:	3a04      	subs	r2, #4
    3c78:	e7f3      	b.n	3c62 <mufp_dln+0x8a>
    3c7a:	f7ff fd18 	bl	36ae <mufp_fix642double>
    3c7e:	bdf0      	pop	{r4, r5, r6, r7, pc}
    3c80:	4902      	ldr	r1, [pc, #8]	; (3c8c <mufp_dln+0xb4>)
    3c82:	2000      	movs	r0, #0
    3c84:	bdf0      	pop	{r4, r5, r6, r7, pc}
    3c86:	4902      	ldr	r1, [pc, #8]	; (3c90 <mufp_dln+0xb8>)
    3c88:	2000      	movs	r0, #0
    3c8a:	bdf0      	pop	{r4, r5, r6, r7, pc}
    3c8c:	fff00000 			; <UNDEFINED> instruction: 0xfff00000	; IMB
    3c90:	7ff00000 	svcvc	0x00f00000	; IMB

00003c94 <dreddata1>:
    3c94:	0000b8aa 	andeq	fp, r0, sl, lsr #17
    3c98:	0013de6b 	andseq	sp, r3, fp, ror #28
    3c9c:	000fefa3 	andeq	lr, pc, r3, lsr #31
    3ca0:	000b1721 	andeq	r1, fp, r1, lsr #14

00003ca4 <dtab_exp>:
    3ca4:	bf984bf3 	svclt	0x00984bf3
    3ca8:	19f323ec 	ldmibne	r3!, {r2, r3, r5, r6, r7, r8, r9, sp}^
    3cac:	cd4d10d6 	stclgt	0, cr1, [sp, #-856]	; 0xfffffca8
    3cb0:	0e47fbe3 	vmlseq.f64	d31, d23, d19
    3cb4:	8abcb97a 	bhi	fef322a4 <IOPORT+0x2ef322a4>
    3cb8:	0789c1db 			; <UNDEFINED> instruction: 0x0789c1db
    3cbc:	022c54cc 	eoreq	r5, ip, #204, 8	; 0xcc000000
    3cc0:	03e14618 	mvneq	r4, #24, 12	; 0x1800000
    3cc4:	e7833005 	str	r3, [r3, r5]
    3cc8:	01f829b0 	ldrheq	r2, [r8, #144]!	; 0x90
    3ccc:	87e01f1e 			; <UNDEFINED> instruction: 0x87e01f1e
    3cd0:	00fe0545 	rscseq	r0, lr, r5, asr #10
    3cd4:	ac419e24 	mcrrge	14, 2, r9, r1, cr4
    3cd8:	007f80a9 	rsbseq	r8, pc, r9, lsr #1
    3cdc:	45621781 	strbmi	r1, [r2, #-1921]!	; 0xfffff87f
    3ce0:	003fe015 	eorseq	lr, pc, r5, lsl r0	; <UNPREDICTABLE>
    3ce4:	a9ab10e6 	stmibge	fp!, {r1, r2, r5, r6, r7, ip}
    3ce8:	001ff802 	andseq	pc, pc, r2, lsl #16
    3cec:	55455888 	strbpl	r5, [r5, #-2184]	; 0xfffff778
    3cf0:	000ffe00 	andeq	pc, pc, r0, lsl #28
    3cf4:	0aa9aac4 	beq	fea6e80c <IOPORT+0x2ea6e80c>
    3cf8:	0007ff80 	andeq	pc, r7, r0, lsl #31
    3cfc:	01554556 	cmpeq	r5, r6, asr r5
    3d00:	0003ffe0 	andeq	pc, r3, r0, ror #31
    3d04:	002aa9ab 	eoreq	sl, sl, fp, lsr #19
    3d08:	0001fff8 	strdeq	pc, [r1], -r8
    3d0c:	00055545 	andeq	r5, r5, r5, asr #10
    3d10:	0000fffe 	strdeq	pc, [r0], -lr
    3d14:	8000aaaa 	andhi	sl, r0, sl, lsr #21
    3d18:	00007fff 	strdeq	r7, [r0], -pc	; <UNPREDICTABLE>
    3d1c:	e0001555 	and	r1, r0, r5, asr r5
    3d20:	00003fff 	strdeq	r3, [r0], -pc	; <UNPREDICTABLE>
    3d24:	f80002ab 			; <UNDEFINED> instruction: 0xf80002ab
    3d28:	00001fff 	strdeq	r1, [r0], -pc	; <UNPREDICTABLE>
    3d2c:	fe000055 	mcr2	0, 0, r0, cr0, cr5, {2}
    3d30:	00000fff 	strdeq	r0, [r0], -pc	; <UNPREDICTABLE>
    3d34:	ff80000b 			; <UNDEFINED> instruction: 0xff80000b
    3d38:	000007ff 	strdeq	r0, [r0], -pc	; <UNPREDICTABLE>
    3d3c:	ffe00001 			; <UNDEFINED> instruction: 0xffe00001
    3d40:	000003ff 	strdeq	r0, [r0], -pc	; <UNPREDICTABLE>
    3d44:	fff80000 			; <UNDEFINED> instruction: 0xfff80000
    3d48:	000001ff 	strdeq	r0, [r0], -pc	; <UNPREDICTABLE>
    3d4c:	fffe0000 			; <UNDEFINED> instruction: 0xfffe0000
    3d50:	000000ff 	strdeq	r0, [r0], -pc	; <UNPREDICTABLE>
    3d54:	ffff8000 			; <UNDEFINED> instruction: 0xffff8000
    3d58:	0000007f 	andeq	r0, r0, pc, ror r0
    3d5c:	ffffe000 			; <UNDEFINED> instruction: 0xffffe000
    3d60:	0000003f 	andeq	r0, r0, pc, lsr r0
    3d64:	fffff800 			; <UNDEFINED> instruction: 0xfffff800
    3d68:	0000001f 	andeq	r0, r0, pc, lsl r0
    3d6c:	fffffe00 			; <UNDEFINED> instruction: 0xfffffe00
    3d70:	0000000f 	andeq	r0, r0, pc
    3d74:	ffffff80 			; <UNDEFINED> instruction: 0xffffff80
    3d78:	00000007 	andeq	r0, r0, r7
    3d7c:	ffffffe0 			; <UNDEFINED> instruction: 0xffffffe0
    3d80:	00000003 	andeq	r0, r0, r3
    3d84:	fffffff8 			; <UNDEFINED> instruction: 0xfffffff8
    3d88:	00000001 	andeq	r0, r0, r1
    3d8c:	fffffffe 			; <UNDEFINED> instruction: 0xfffffffe
    3d90:	00000000 	andeq	r0, r0, r0
    3d94:	80000000 	andhi	r0, r0, r0
    3d98:	00000000 	andeq	r0, r0, r0
    3d9c:	40000000 	andmi	r0, r0, r0
    3da0:	00000000 	andeq	r0, r0, r0

00003da4 <mufp_lib_double_end>:
    3da4:	45444e49 	strbmi	r4, [r4, #-3657]	; 0xfffff1b7
    3da8:	20202058 	eorcs	r2, r0, r8, asr r0
    3dac:	004d5448 	subeq	r5, sp, r8, asr #8
    3db0:	4f464e49 	svcmi	0x00464e49
    3db4:	3246555f 	subcc	r5, r6, #398458880	; 0x17c00000
    3db8:	00545854 	subseq	r5, r4, r4, asr r8
    3dbc:	70736152 	rsbsvc	r6, r3, r2, asr r1
    3dc0:	72726562 	rsbsvc	r6, r2, #411041792	; 0x18800000
    3dc4:	69502079 	ldmdbvs	r0, {r0, r3, r4, r5, r6, sp}^
    3dc8:	32505200 	subscc	r5, r0, #0, 4
    3dcc:	6f6f4220 	svcvs	0x006f4220
    3dd0:	 	tsteq	r6, r4, ror r0

00003dd2 <_msc_cmd_transfer_type>:
    3dd2:	 	stfeqe	f0, [r0, #24]

00003dd4 <_msc_endpoints.4958>:
    3dd4:	50100dc0 	andspl	r0, r0, r0, asr #27
    3dd8:	50100dec 	andspl	r0, r0, ip, ror #27

00003ddc <_msc_sector_funcs>:
    3ddc:	0000047d 	andeq	r0, r0, sp, ror r4
    3de0:	0000000a 	andeq	r0, r0, sl

00003de4 <_picoboot_cmd_transfer_type>:
    3de4:	be000104 	adflts	f0, f0, f4

00003de8 <_picoboot_stream_funcs.4930>:
    3de8:	0000004f 	andeq	r0, r0, pc, asr #32
    3dec:	0000000c 	andeq	r0, r0, ip

00003df0 <_ptable_data4.4908>:
    3df0:	0000000e 	andeq	r0, r0, lr
    3df4:	00000001 	andeq	r0, r0, r1
    3df8:	 	strdeq	pc, [r3], -pc	; <UNPREDICTABLE>

00003dfb <_resp.5091>:
    3dfb:	ffff0300 			; <UNDEFINED> instruction: 0xffff0300
    3dff:	00020000 	andeq	r0, r2, r0

00003e03 <_resp.5100>:
    3e03:	00000000 	andeq	r0, r0, r0
    3e07:	ffff0300 			; <UNDEFINED> instruction: 0xffff0300
    3e0b:	00020002 	andeq	r0, r2, r2

00003e0f <_usb_stream_transfer_type>:
    3e0f:	 	andeq	r0, r9, #8

00003e11 <boot_device_config>:
    3e11:	00370209 	eorseq	r0, r7, r9, lsl #4
    3e15:	80000102 	andhi	r0, r0, r2, lsl #2
    3e19:	000409fa 	strdeq	r0, [r4], -sl
    3e1d:	06080200 	streq	r0, [r8], -r0, lsl #4
    3e21:	05070050 	streq	r0, [r7, #-80]	; 0xffffffb0
    3e25:	00400281 	subeq	r0, r0, r1, lsl #5
    3e29:	02050700 	andeq	r0, r5, #0, 14
    3e2d:	00004002 	andeq	r4, r0, r2
    3e31:	00010409 	andeq	r0, r1, r9, lsl #8
    3e35:	0000ff02 	andeq	pc, r0, r2, lsl #30
    3e39:	03050700 	movweq	r0, #22272	; 0x5700
    3e3d:	00004002 	andeq	r4, r0, r2
    3e41:	02840507 	addeq	r0, r4, #29360128	; 0x1c00000
    3e45:	 	andne	r0, r0, #64	; 0x40

00003e48 <boot_device_descriptor>:
    3e48:	01100112 	tsteq	r0, r2, lsl r1
    3e4c:	40000000 	andmi	r0, r0, r0
    3e50:	00032e8a 	andeq	r2, r3, sl, lsl #29
    3e54:	02010100 	andeq	r0, r1, #0, 2
    3e58:	be000103 	adflts	f0, f0, f3

00003e5c <boot_device_interfaces.4961>:
    3e5c:	50100e18 	andspl	r0, r0, r8, lsl lr
    3e60:	50100e50 	andspl	r0, r0, r0, asr lr

00003e64 <boot_sector>:
    3e64:	4d903ceb 	ldcmi	12, cr3, [r0, #940]	; 0x3ac
    3e68:	4e495753 	mcrmi	7, 2, r5, cr9, cr3, {2}
    3e6c:	00312e34 	eorseq	r2, r1, r4, lsr lr
    3e70:	00010802 	andeq	r0, r1, r2, lsl #16
    3e74:	00020002 	andeq	r0, r2, r2
    3e78:	0081f800 	addeq	pc, r1, r0, lsl #16
    3e7c:	00010001 	andeq	r0, r1, r1
    3e80:	00000001 	andeq	r0, r0, r1
    3e84:	0003ffff 	strdeq	pc, [r3], -pc	; <UNPREDICTABLE>
    3e88:	00290000 	eoreq	r0, r9, r0
    3e8c:	52000000 	andpl	r0, r0, #0
    3e90:	522d4950 	eorpl	r4, sp, #80, 18	; 0x140000
    3e94:	20203250 	eorcs	r3, r0, r0, asr r2
    3e98:	41462020 	cmpmi	r6, r0, lsr #32
    3e9c:	20363154 	eorscs	r3, r6, r4, asr r1
    3ea0:	feeb2020 	cdp2	0, 14, cr2, cr11, cr0, {1}

00003ea4 <cmd_mapping.4926>:
    3ea4:	01000000 	mrseq	r0, (UNDEF: 0)
    3ea8:	000c1000 	andeq	r1, ip, r0
    3eac:	02000800 	andeq	r0, r0, #0, 16
    3eb0:	08048008 	stmdaeq	r4, {r3, pc}
    3eb4:	00000880 	andeq	r0, r0, r0, lsl #17
    3eb8:	20000001 	andcs	r0, r0, r1
    3ebc:	04400004 	strbeq	r0, [r0], #-4
    3ec0:	be008000 	cdplt	0, 0, cr8, cr0, cr0, {0}

00003ec4 <default_flash_funcs>:
    3ec4:	0000001c 	andeq	r0, r0, ip, lsl r0
    3ec8:	00002345 	andeq	r2, r0, r5, asr #6
    3ecc:	000024b1 			; <UNDEFINED> instruction: 0x000024b1
    3ed0:	00001885 	andeq	r1, r0, r5, lsl #17
    3ed4:	00000ac9 	andeq	r0, r0, r9, asr #21
    3ed8:	000018bd 			; <UNDEFINED> instruction: 0x000018bd
    3edc:	000017f5 	strdeq	r1, [r0], -r5

00003ee0 <descriptor_strings>:
    3ee0:	00003daf 	andeq	r3, r0, pc, lsr #27
    3ee4:	00003dbc 			; <UNDEFINED> instruction: 0x00003dbc
    3ee8:	00003dc9 	andeq	r3, r0, r9, asr #27
    3eec:	50100eb5 			; <UNDEFINED> instruction: 0x50100eb5

00003ef0 <info_uf2_txt>:
    3ef0:	20324655 	eorscs	r4, r2, r5, asr r6
    3ef4:	746f6f42 	strbtvc	r6, [pc], #-3906	; 3efc <info_uf2_txt+0xc>
    3ef8:	64616f6c 	strbtvs	r6, [r1], #-3948	; 0xfffff094
    3efc:	76207265 	strtvc	r7, [r0], -r5, ror #4
    3f00:	0a302e33 	beq	c0f7d4 <platform.c.c204d31d+0xc03342>
    3f04:	65646f4d 	strbvs	r6, [r4, #-3917]!	; 0xfffff0b3
    3f08:	52203a6c 	eorpl	r3, r0, #108, 20	; 0x6c000
    3f0c:	62707361 	rsbsvs	r7, r0, #-2080374783	; 0x84000001
    3f10:	79727265 	ldmdbvc	r2!, {r0, r2, r5, r6, r9, ip, sp, lr}^
    3f14:	20695020 	rsbcs	r5, r9, r0, lsr #32
    3f18:	0a325052 	beq	c98068 <platform.c.c204d31d+0xc8bbd6>
    3f1c:	72616f42 	rsbvc	r6, r1, #264	; 0x108
    3f20:	44492d64 	strbmi	r2, [r9], #-3428	; 0xfffff29c
    3f24:	5052203a 	subspl	r2, r2, sl, lsr r0
    3f28:	50522d49 	subspl	r2, r2, r9, asr #26
    3f2c:	 	movweq	r0, #18994	; 0x4a32

00003f2e <lang_descriptor.5012>:
    3f2e:	04090304 	streq	r0, [r9], #-772	; 0xfffffcfc
    3f32:	 	cdpeq	14, 5, cr11, cr8, cr0, {0}

00003f34 <picoboot_endpoints.4959>:
    3f34:	50100e58 	andspl	r0, r0, r8, asr lr
    3f38:	50100e24 	andspl	r0, r0, r4, lsr #28

00003f3c <scsi_ir_z>:
    3f3c:	02020000 	andeq	r0, r2, #0
    3f40:	00000020 	andeq	r0, r0, r0, lsr #32
    3f44:	20495052 	subcs	r5, r9, r2, asr r0
    3f48:	505201fc 	ldrshpl	r0, [r2], #-28	; 0xffffffe4
    3f4c:	2008fb32 	andcs	pc, r8, r2, lsr fp	; <UNPREDICTABLE>
    3f50:	fd3306f9 	ldc2	6, cr0, [r3, #-996]!	; 0xfffffc1c
    3f54:	 	sfmcc	f0, 4, [r1], {22}

00003f55 <usb_current_packet_only_transfer_type>:
    3f55:	 	ldmdavs	ip!, {r1, r8}

00003f57 <welcome_html_z>:
    3f57:	6d74683c 	ldclvs	8, cr6, [r4, #-240]!	; 0xffffff10
    3f5b:	683c3e6c 	ldmdavs	ip!, {r2, r3, r5, r6, r9, sl, fp, ip, sp}
    3f5f:	3e646165 	powccsz	f6, f4, f5
    3f63:	74656d3c 	strbtvc	r6, [r5], #-3388	; 0xfffff2c4
    3f67:	74682061 	strbtvc	r2, [r8], #-97	; 0xffffff9f
    3f6b:	652d7074 	strvs	r7, [sp, #-116]!	; 0xffffff8c
    3f6f:	76697571 			; <UNDEFINED> instruction: 0x76697571
    3f73:	6572223d 	ldrbvs	r2, [r2, #-573]!	; 0xfffffdc3
    3f77:	73657266 	cmnvc	r5, #1610612742	; 0x60000006
    3f7b:	63202268 			; <UNDEFINED> instruction: 0x63202268
    3f7f:	65746e6f 	ldrbvs	r6, [r4, #-3695]!	; 0xfffff191
    3f83:	223d746e 	eorscs	r7, sp, #1845493760	; 0x6e000000
    3f87:	52553b30 	subspl	r3, r5, #48, 22	; 0xc000
    3f8b:	fc273d4c 	vsdot.s8	<illegal reg q1.5>, <illegal reg q3.5>, q6
    3f8f:	2f3a7325 	svccs	0x003a7325
    3f93:	7361722f 	cmnvc	r1, #-268435454	; 0xf0000002
    3f97:	72656270 	rsbvc	r6, r5, #112, 4
    3f9b:	69707972 	ldmdbvs	r0!, {r1, r4, r5, r6, r8, fp, ip, sp, lr}^
    3f9f:	6d6f632e 	stclvs	3, cr6, [pc, #-184]!	; 3eec <descriptor_strings+0xc>
    3fa3:	7665642f 	strbtvc	r6, [r5], -pc, lsr #8
    3fa7:	2f656369 	svccs	0x00656369
    3fab:	3f325052 	svccc	0x00325052
    3faf:	73726576 	cmnvc	r2, #494927872	; 0x1d800000
    3fb3:	3d6e6f69 	stclcc	15, cr6, [lr, #-420]!	; 0xfffffe5c
    3fb7:	62626161 	rsbvs	r6, r2, #1073741848	; 0x40000018
    3fbb:	64646363 	strbtvs	r6, [r4], #-867	; 0xfffffc9d
    3fbf:	66666565 	strbtvs	r6, [r6], -r5, ror #10
    3fc3:	3e2f2227 	cdpcc	2, 2, cr2, cr15, cr7, {1}
    3fc7:	6dfa2f3c 	ldclvs	15, cr2, [sl, #240]!	; 0xf0
    3fcb:	79646f62 	stmdbvc	r4!, {r1, r5, r6, r8, r9, sl, fp, sp, lr}^
    3fcf:	6465523e 	strbtvs	r5, [r5], #-574	; 0xfffffdc2
    3fd3:	63657269 	cmnvs	r5, #-1879048186	; 0x90000006
    3fd7:	676e6974 			; <UNDEFINED> instruction: 0x676e6974
    3fdb:	206f7420 	rsbcs	r7, pc, r0, lsr #8
    3fdf:	727ffd3c 	rsbsvc	pc, pc, #60, 26	; 0xf00
    3fe3:	60c66665 	sbcvs	r6, r6, r5, ror #12
    3fe7:	3c91f13e 	ldfccd	f7, [r1], {62}	; 0x3e
    3feb:	71fd612f 	mvnsvc	r6, pc, lsr #2
    3fef:	3c6bfc62 	stclcc	12, cr15, [fp], #-392	; 0xfffffe78
    3ff3:	 	rsceq	pc, fp, pc, lsr #22

00003ff6 <this_is_the_end_my_only_friend_the_end>:
    3ff6:	be00be00 	cdplt	14, 0, cr11, cr0, cr0, {0}
    3ffa:	be00be00 	cdplt	14, 0, cr11, cr0, cr0, {0}
    3ffe:	Address 0x0000000000003ffe is out of bounds.


Disassembly of section .bss:

50100400 <usb_boot_stack>:
	...

501008b0 <_ack_transfer.4896>:
	...

501008c4 <_buffer.4929>:
	...

501009c4 <_control_in_transfer>:
	...

501009d8 <_control_out_transfer>:
	...

501009ec <_device>:
	...

50100a08 <_endpoints>:
	...

50100a1c <_last_mutation_source>:
50100a1c:	00000000 	andeq	r0, r0, r0

50100a20 <_msc_async_token>:
50100a20:	00000000 	andeq	r0, r0, r0

50100a24 <_msc_cmd_response_transfer>:
	...

50100a38 <_msc_cmd_transfer>:
	...

50100a4c <_msc_sector_transfer>:
	...

50100a7c <_msc_state>:
	...

50100aa4 <_picoboot_cmd_transfer.4960>:
	...

50100ab8 <_picoboot_current_cmd_status>:
	...

50100ac8 <_picoboot_stream_transfer>:
	...

50100b1c <_sector_buf>:
	...

50100d1c <_single_interface_config>:
	...

50100d3c <_uf2_info>:
	...

50100d8c <_worker_task>:
	...

50100db4 <boot_device_state>:
	...

50100dbc <flash_funcs>:
50100dbc:	00000000 	andeq	r0, r0, r0

50100dc0 <msc_endpoints>:
	...

50100e18 <msd_interface>:
	...

50100e20 <one_time.5115>:
50100e20:	00000000 	andeq	r0, r0, r0

50100e24 <picoboot_in>:
	...

50100e50 <picoboot_interface>:
	...

50100e58 <picoboot_out>:
	...

50100e84 <picoboot_queue>:
	...

50100eb0 <real_token.4924>:
50100eb0:	00000000 	andeq	r0, r0, r0

50100eb4 <rebooting>:
	...

50100eb5 <serial_number_string>:
	...

50100ec4 <uf2_valid_ram_blocks>:
	...

50100f64 <usb_activity_gpio_pin_mask>:
50100f64:	00000000 	andeq	r0, r0, r0

50100f68 <usb_control_in>:
	...

50100f94 <usb_control_out>:
	...

50100fc0 <virtual_disk_queue>:
	...
